
./output/temp.elf:     file format elf32-littleriscv


Disassembly of section .text:

00000000 <_entry>:
       0:	00000093          	li	ra,0
       4:	00010137          	lui	sp,0x10
       8:	00000193          	li	gp,0
       c:	00000213          	li	tp,0
      10:	00000293          	li	t0,0
      14:	00000313          	li	t1,0
      18:	00000393          	li	t2,0
      1c:	00000413          	li	s0,0
      20:	00000493          	li	s1,0
      24:	00000513          	li	a0,0
      28:	00000593          	li	a1,0
      2c:	00000613          	li	a2,0
      30:	00000693          	li	a3,0
      34:	00000713          	li	a4,0
      38:	00000793          	li	a5,0
      3c:	00000813          	li	a6,0
      40:	00000893          	li	a7,0
      44:	00000913          	li	s2,0
      48:	00000993          	li	s3,0
      4c:	00000a13          	li	s4,0
      50:	00000a93          	li	s5,0
      54:	00000b13          	li	s6,0
      58:	00000b93          	li	s7,0
      5c:	00000c13          	li	s8,0
      60:	00000c93          	li	s9,0
      64:	00000d13          	li	s10,0
      68:	00000d93          	li	s11,0
      6c:	00000e13          	li	t3,0
      70:	00000e93          	li	t4,0
      74:	00000f13          	li	t5,0
      78:	00000f93          	li	t6,0
      7c:	7850306f          	j	4000 <main>
	...

00004000 <main>:
    4000:	81010113          	addi	sp,sp,-2032 # f810 <start_time_val+0x61f4>
    4004:	7e812423          	sw	s0,2024(sp)
    4008:	00001437          	lui	s0,0x1
    400c:	7e112623          	sw	ra,2028(sp)
    4010:	7e912223          	sw	s1,2020(sp)
    4014:	7f212023          	sw	s2,2016(sp)
    4018:	7d312e23          	sw	s3,2012(sp)
    401c:	7d412c23          	sw	s4,2008(sp)
    4020:	7d512a23          	sw	s5,2004(sp)
    4024:	7d612823          	sw	s6,2000(sp)
    4028:	7d712623          	sw	s7,1996(sp)
    402c:	7d812423          	sw	s8,1992(sp)
    4030:	7d912223          	sw	s9,1988(sp)
    4034:	7da12023          	sw	s10,1984(sp)
    4038:	7bb12e23          	sw	s11,1980(sp)
    403c:	fffff7b7          	lui	a5,0xfffff
    4040:	f8010113          	addi	sp,sp,-128
    4044:	82040713          	addi	a4,s0,-2016 # 820 <_entry+0x820>
    4048:	00f70733          	add	a4,a4,a5
    404c:	00009537          	lui	a0,0x9
    4050:	01010793          	addi	a5,sp,16
    4054:	00f707b3          	add	a5,a4,a5
    4058:	e8c50513          	addi	a0,a0,-372 # 8e8c <ee_printf+0x13ec>
    405c:	00f12223          	sw	a5,4(sp)
    4060:	7e07a223          	sw	zero,2020(a5) # fffff7e4 <start_time_val+0xffff61c8>
    4064:	23d030ef          	jal	7aa0 <ee_printf>
    4068:	fffff637          	lui	a2,0xfffff
    406c:	7e860613          	addi	a2,a2,2024 # fffff7e8 <start_time_val+0xffff61cc>
    4070:	82040793          	addi	a5,s0,-2016
    4074:	01010713          	addi	a4,sp,16
    4078:	00c787b3          	add	a5,a5,a2
    407c:	fffff5b7          	lui	a1,0xfffff
    4080:	00e78633          	add	a2,a5,a4
    4084:	7e458593          	addi	a1,a1,2020 # fffff7e4 <start_time_val+0xffff61c8>
    4088:	82040793          	addi	a5,s0,-2016
    408c:	00b787b3          	add	a5,a5,a1
    4090:	00e785b3          	add	a1,a5,a4
    4094:	05e10513          	addi	a0,sp,94
    4098:	484030ef          	jal	751c <portable_init>
    409c:	00100513          	li	a0,1
    40a0:	161020ef          	jal	6a00 <get_seed_32>
    40a4:	00412703          	lw	a4,4(sp)
    40a8:	00050793          	mv	a5,a0
    40ac:	00200513          	li	a0,2
    40b0:	7ef71623          	sh	a5,2028(a4)
    40b4:	14d020ef          	jal	6a00 <get_seed_32>
    40b8:	00412703          	lw	a4,4(sp)
    40bc:	00050793          	mv	a5,a0
    40c0:	00300513          	li	a0,3
    40c4:	7ef71723          	sh	a5,2030(a4)
    40c8:	139020ef          	jal	6a00 <get_seed_32>
    40cc:	00412703          	lw	a4,4(sp)
    40d0:	00050793          	mv	a5,a0
    40d4:	00400513          	li	a0,4
    40d8:	7ef71823          	sh	a5,2032(a4)
    40dc:	125020ef          	jal	6a00 <get_seed_32>
    40e0:	00050793          	mv	a5,a0
    40e4:	00500513          	li	a0,5
    40e8:	02f12c23          	sw	a5,56(sp)
    40ec:	115020ef          	jal	6a00 <get_seed_32>
    40f0:	00051463          	bnez	a0,40f8 <main+0xf8>
    40f4:	00700513          	li	a0,7
    40f8:	00001737          	lui	a4,0x1
    40fc:	fffff7b7          	lui	a5,0xfffff
    4100:	82070713          	addi	a4,a4,-2016 # 820 <_entry+0x820>
    4104:	00f70733          	add	a4,a4,a5
    4108:	01010793          	addi	a5,sp,16
    410c:	00f707b3          	add	a5,a4,a5
    4110:	00f12223          	sw	a5,4(sp)
    4114:	7ec7a783          	lw	a5,2028(a5) # fffff7ec <start_time_val+0xffff61d0>
    4118:	02a12e23          	sw	a0,60(sp)
    411c:	30079e63          	bnez	a5,4438 <main+0x438>
    4120:	00412783          	lw	a5,4(sp)
    4124:	7f079783          	lh	a5,2032(a5)
    4128:	4c078e63          	beqz	a5,4604 <main+0x604>
    412c:	000015b7          	lui	a1,0x1
    4130:	fffff637          	lui	a2,0xfffff
    4134:	82058593          	addi	a1,a1,-2016 # 820 <_entry+0x820>
    4138:	00c585b3          	add	a1,a1,a2
    413c:	01010613          	addi	a2,sp,16
    4140:	00c58633          	add	a2,a1,a2
    4144:	00257693          	andi	a3,a0,2
    4148:	06010593          	addi	a1,sp,96
    414c:	00157713          	andi	a4,a0,1
    4150:	00d037b3          	snez	a5,a3
    4154:	00c12223          	sw	a2,4(sp)
    4158:	7eb62a23          	sw	a1,2036(a2) # fffff7f4 <start_time_val+0xffff61d8>
    415c:	04011e23          	sh	zero,92(sp)
    4160:	00457613          	andi	a2,a0,4
    4164:	00f707b3          	add	a5,a4,a5
    4168:	2a061263          	bnez	a2,440c <main+0x40c>
    416c:	7d000593          	li	a1,2000
    4170:	02f5d5b3          	divu	a1,a1,a5
    4174:	fffff837          	lui	a6,0xfffff
    4178:	02b12a23          	sw	a1,52(sp)
    417c:	4c071063          	bnez	a4,463c <main+0x63c>
    4180:	48069a63          	bnez	a3,4614 <main+0x614>
    4184:	000016b7          	lui	a3,0x1
    4188:	fffff737          	lui	a4,0xfffff
    418c:	03c12783          	lw	a5,60(sp)
    4190:	82068693          	addi	a3,a3,-2016 # 820 <_entry+0x820>
    4194:	00e686b3          	add	a3,a3,a4
    4198:	01010713          	addi	a4,sp,16
    419c:	00e68733          	add	a4,a3,a4
    41a0:	00e12223          	sw	a4,4(sp)
    41a4:	0017f713          	andi	a4,a5,1
    41a8:	02070063          	beqz	a4,41c8 <main+0x1c8>
    41ac:	00412783          	lw	a5,4(sp)
    41b0:	03412503          	lw	a0,52(sp)
    41b4:	7ec79603          	lh	a2,2028(a5)
    41b8:	7f87a583          	lw	a1,2040(a5)
    41bc:	15c010ef          	jal	5318 <core_list_init>
    41c0:	03c12783          	lw	a5,60(sp)
    41c4:	04a12023          	sw	a0,64(sp)
    41c8:	0027f713          	andi	a4,a5,2
    41cc:	1e071863          	bnez	a4,43bc <main+0x3bc>
    41d0:	0047f793          	andi	a5,a5,4
    41d4:	02078863          	beqz	a5,4204 <main+0x204>
    41d8:	00001737          	lui	a4,0x1
    41dc:	fffff7b7          	lui	a5,0xfffff
    41e0:	82070713          	addi	a4,a4,-2016 # 820 <_entry+0x820>
    41e4:	00f70733          	add	a4,a4,a5
    41e8:	01010793          	addi	a5,sp,16
    41ec:	00f707b3          	add	a5,a4,a5
    41f0:	03012603          	lw	a2,48(sp)
    41f4:	7ec79583          	lh	a1,2028(a5) # fffff7ec <start_time_val+0xffff61d0>
    41f8:	03412503          	lw	a0,52(sp)
    41fc:	00f12223          	sw	a5,4(sp)
    4200:	060020ef          	jal	6260 <core_init_state>
    4204:	03812783          	lw	a5,56(sp)
    4208:	0a079e63          	bnez	a5,42c4 <main+0x2c4>
    420c:	00100793          	li	a5,1
    4210:	fffff4b7          	lui	s1,0xfffff
    4214:	02f12c23          	sw	a5,56(sp)
    4218:	000017b7          	lui	a5,0x1
    421c:	7ec48493          	addi	s1,s1,2028 # fffff7ec <start_time_val+0xffff61d0>
    4220:	82078793          	addi	a5,a5,-2016 # 820 <_entry+0x820>
    4224:	009787b3          	add	a5,a5,s1
    4228:	01010713          	addi	a4,sp,16
    422c:	00e784b3          	add	s1,a5,a4
    4230:	03812703          	lw	a4,56(sp)
    4234:	00000413          	li	s0,0
    4238:	00271793          	slli	a5,a4,0x2
    423c:	00e787b3          	add	a5,a5,a4
    4240:	00179793          	slli	a5,a5,0x1
    4244:	02f12c23          	sw	a5,56(sp)
    4248:	28c030ef          	jal	74d4 <start_time>
    424c:	03812903          	lw	s2,56(sp)
    4250:	04012a23          	sw	zero,84(sp)
    4254:	04012c23          	sw	zero,88(sp)
    4258:	04090263          	beqz	s2,429c <main+0x29c>
    425c:	00100593          	li	a1,1
    4260:	00048513          	mv	a0,s1
    4264:	419000ef          	jal	4e7c <core_bench_list>
    4268:	05415583          	lhu	a1,84(sp)
    426c:	121020ef          	jal	6b8c <crcu16>
    4270:	00050793          	mv	a5,a0
    4274:	fff00593          	li	a1,-1
    4278:	00048513          	mv	a0,s1
    427c:	04f11a23          	sh	a5,84(sp)
    4280:	3fd000ef          	jal	4e7c <core_bench_list>
    4284:	05415583          	lhu	a1,84(sp)
    4288:	105020ef          	jal	6b8c <crcu16>
    428c:	04a11a23          	sh	a0,84(sp)
    4290:	10040c63          	beqz	s0,43a8 <main+0x3a8>
    4294:	00140413          	addi	s0,s0,1
    4298:	fc8912e3          	bne	s2,s0,425c <main+0x25c>
    429c:	248030ef          	jal	74e4 <stop_time>
    42a0:	254030ef          	jal	74f4 <get_time>
    42a4:	268030ef          	jal	750c <time_in_secs>
    42a8:	f80504e3          	beqz	a0,4230 <main+0x230>
    42ac:	00a00793          	li	a5,10
    42b0:	02a7d7b3          	divu	a5,a5,a0
    42b4:	03812703          	lw	a4,56(sp)
    42b8:	00178793          	addi	a5,a5,1
    42bc:	02e787b3          	mul	a5,a5,a4
    42c0:	02f12c23          	sw	a5,56(sp)
    42c4:	210030ef          	jal	74d4 <start_time>
    42c8:	00001437          	lui	s0,0x1
    42cc:	fffff537          	lui	a0,0xfffff
    42d0:	7ec50513          	addi	a0,a0,2028 # fffff7ec <start_time_val+0xffff61d0>
    42d4:	82040793          	addi	a5,s0,-2016 # 820 <_entry+0x820>
    42d8:	00a787b3          	add	a5,a5,a0
    42dc:	01010713          	addi	a4,sp,16
    42e0:	00e78533          	add	a0,a5,a4
    42e4:	568010ef          	jal	584c <iterate>
    42e8:	1fc030ef          	jal	74e4 <stop_time>
    42ec:	208030ef          	jal	74f4 <get_time>
    42f0:	fffff7b7          	lui	a5,0xfffff
    42f4:	82040713          	addi	a4,s0,-2016
    42f8:	00f70733          	add	a4,a4,a5
    42fc:	01010793          	addi	a5,sp,16
    4300:	00f707b3          	add	a5,a4,a5
    4304:	00050493          	mv	s1,a0
    4308:	7ec79503          	lh	a0,2028(a5) # fffff7ec <start_time_val+0xffff61d0>
    430c:	00000593          	li	a1,0
    4310:	00f12223          	sw	a5,4(sp)
    4314:	75d020ef          	jal	7270 <crc16>
    4318:	00412783          	lw	a5,4(sp)
    431c:	00050593          	mv	a1,a0
    4320:	7ee79503          	lh	a0,2030(a5)
    4324:	74d020ef          	jal	7270 <crc16>
    4328:	00412783          	lw	a5,4(sp)
    432c:	00050593          	mv	a1,a0
    4330:	7f079503          	lh	a0,2032(a5)
    4334:	73d020ef          	jal	7270 <crc16>
    4338:	00050593          	mv	a1,a0
    433c:	03411503          	lh	a0,52(sp)
    4340:	731020ef          	jal	7270 <crc16>
    4344:	000087b7          	lui	a5,0x8
    4348:	b0578793          	addi	a5,a5,-1275 # 7b05 <ee_printf+0x65>
    434c:	00050913          	mv	s2,a0
    4350:	72f50263          	beq	a0,a5,4a74 <main+0xa74>
    4354:	10a7fa63          	bgeu	a5,a0,4468 <main+0x468>
    4358:	000097b7          	lui	a5,0x9
    435c:	a0278793          	addi	a5,a5,-1534 # 8a02 <ee_printf+0xf62>
    4360:	6cf50e63          	beq	a0,a5,4a3c <main+0xa3c>
    4364:	0000f7b7          	lui	a5,0xf
    4368:	9f578793          	addi	a5,a5,-1547 # e9f5 <start_time_val+0x53d9>
    436c:	30f51063          	bne	a0,a5,466c <main+0x66c>
    4370:	00009537          	lui	a0,0x9
    4374:	f2450513          	addi	a0,a0,-220 # 8f24 <ee_printf+0x1484>
    4378:	728030ef          	jal	7aa0 <ee_printf>
    437c:	00009a37          	lui	s4,0x9
    4380:	000027b7          	lui	a5,0x2
    4384:	0000e9b7          	lui	s3,0xe
    4388:	fd778793          	addi	a5,a5,-41 # 1fd7 <_entry+0x1fd7>
    438c:	e3aa0a13          	addi	s4,s4,-454 # 8e3a <ee_printf+0x139a>
    4390:	71498993          	addi	s3,s3,1812 # e714 <start_time_val+0x50f8>
    4394:	00f12623          	sw	a5,12(sp)
    4398:	000a0c13          	mv	s8,s4
    439c:	00078b93          	mv	s7,a5
    43a0:	00098b13          	mv	s6,s3
    43a4:	1100006f          	j	44b4 <main+0x4b4>
    43a8:	04a11b23          	sh	a0,86(sp)
    43ac:	00100793          	li	a5,1
    43b0:	eef906e3          	beq	s2,a5,429c <main+0x29c>
    43b4:	00100413          	li	s0,1
    43b8:	ea5ff06f          	j	425c <main+0x25c>
    43bc:	00001737          	lui	a4,0x1
    43c0:	fffff7b7          	lui	a5,0xfffff
    43c4:	82070713          	addi	a4,a4,-2016 # 820 <_entry+0x820>
    43c8:	00f70733          	add	a4,a4,a5
    43cc:	01010793          	addi	a5,sp,16
    43d0:	00f707b3          	add	a5,a4,a5
    43d4:	00f12223          	sw	a5,4(sp)
    43d8:	00412703          	lw	a4,4(sp)
    43dc:	7ee79783          	lh	a5,2030(a5) # fffff7ee <start_time_val+0xffff61d2>
    43e0:	03412503          	lw	a0,52(sp)
    43e4:	7ec71603          	lh	a2,2028(a4)
    43e8:	7fc72583          	lw	a1,2044(a4)
    43ec:	01079793          	slli	a5,a5,0x10
    43f0:	00c7e633          	or	a2,a5,a2
    43f4:	04410693          	addi	a3,sp,68
    43f8:	219010ef          	jal	5e10 <core_init_matrix>
    43fc:	03c12783          	lw	a5,60(sp)
    4400:	0047f793          	andi	a5,a5,4
    4404:	dc079ae3          	bnez	a5,41d8 <main+0x1d8>
    4408:	dfdff06f          	j	4204 <main+0x204>
    440c:	00178813          	addi	a6,a5,1
    4410:	7d000593          	li	a1,2000
    4414:	0305d5b3          	divu	a1,a1,a6
    4418:	02b12a23          	sw	a1,52(sp)
    441c:	22071063          	bnez	a4,463c <main+0x63c>
    4420:	6a069063          	bnez	a3,4ac0 <main+0xac0>
    4424:	02b787b3          	mul	a5,a5,a1
    4428:	06010713          	addi	a4,sp,96
    442c:	00f707b3          	add	a5,a4,a5
    4430:	02f12823          	sw	a5,48(sp)
    4434:	d51ff06f          	j	4184 <main+0x184>
    4438:	00100713          	li	a4,1
    443c:	cee798e3          	bne	a5,a4,412c <main+0x12c>
    4440:	00412783          	lw	a5,4(sp)
    4444:	7f079783          	lh	a5,2032(a5)
    4448:	ce0792e3          	bnez	a5,412c <main+0x12c>
    444c:	00412703          	lw	a4,4(sp)
    4450:	341537b7          	lui	a5,0x34153
    4454:	41578793          	addi	a5,a5,1045 # 34153415 <start_time_val+0x34149df9>
    4458:	7ef72623          	sw	a5,2028(a4)
    445c:	06600793          	li	a5,102
    4460:	7ef71823          	sh	a5,2032(a4)
    4464:	cc9ff06f          	j	412c <main+0x12c>
    4468:	000027b7          	lui	a5,0x2
    446c:	8f278793          	addi	a5,a5,-1806 # 18f2 <_entry+0x18f2>
    4470:	58f50c63          	beq	a0,a5,4a08 <main+0xa08>
    4474:	000057b7          	lui	a5,0x5
    4478:	eaf78793          	addi	a5,a5,-337 # 4eaf <core_bench_list+0x33>
    447c:	1ef51863          	bne	a0,a5,466c <main+0x66c>
    4480:	00009537          	lui	a0,0x9
    4484:	ef050513          	addi	a0,a0,-272 # 8ef0 <ee_printf+0x1450>
    4488:	618030ef          	jal	7aa0 <ee_printf>
    448c:	0000ea37          	lui	s4,0xe
    4490:	000057b7          	lui	a5,0x5
    4494:	000079b7          	lui	s3,0x7
    4498:	60878793          	addi	a5,a5,1544 # 5608 <core_list_insert_new+0x2c>
    449c:	5a4a0a13          	addi	s4,s4,1444 # e5a4 <start_time_val+0x4f88>
    44a0:	a7998993          	addi	s3,s3,-1415 # 6a79 <crcu8+0x15>
    44a4:	00f12623          	sw	a5,12(sp)
    44a8:	000a0c13          	mv	s8,s4
    44ac:	00078b93          	mv	s7,a5
    44b0:	00098b13          	mv	s6,s3
    44b4:	00009cb7          	lui	s9,0x9
    44b8:	600ca783          	lw	a5,1536(s9) # 9600 <default_num_contexts>
    44bc:	5e078863          	beqz	a5,4aac <main+0xaac>
    44c0:	00001737          	lui	a4,0x1
    44c4:	fffff7b7          	lui	a5,0xfffff
    44c8:	82070713          	addi	a4,a4,-2016 # 820 <_entry+0x820>
    44cc:	00f70733          	add	a4,a4,a5
    44d0:	01010793          	addi	a5,sp,16
    44d4:	00f707b3          	add	a5,a4,a5
    44d8:	00000a93          	li	s5,0
    44dc:	00000d93          	li	s11,0
    44e0:	00f12223          	sw	a5,4(sp)
    44e4:	00001d37          	lui	s10,0x1
    44e8:	0440006f          	j	452c <main+0x52c>
    44ec:	00412703          	lw	a4,4(sp)
    44f0:	01b407b3          	add	a5,s0,s11
    44f4:	00279793          	slli	a5,a5,0x2
    44f8:	00f707b3          	add	a5,a4,a5
    44fc:	00fd07b3          	add	a5,s10,a5
    4500:	82c7d783          	lhu	a5,-2004(a5) # ffffe82c <start_time_val+0xffff5210>
    4504:	001d8593          	addi	a1,s11,1
    4508:	600ca683          	lw	a3,1536(s9)
    450c:	015787b3          	add	a5,a5,s5
    4510:	01059d93          	slli	s11,a1,0x10
    4514:	01079413          	slli	s0,a5,0x10
    4518:	01079a93          	slli	s5,a5,0x10
    451c:	010ddd93          	srli	s11,s11,0x10
    4520:	01045413          	srli	s0,s0,0x10
    4524:	410ada93          	srai	s5,s5,0x10
    4528:	14ddf863          	bgeu	s11,a3,4678 <main+0x678>
    452c:	00412703          	lw	a4,4(sp)
    4530:	004d9413          	slli	s0,s11,0x4
    4534:	01b407b3          	add	a5,s0,s11
    4538:	00279793          	slli	a5,a5,0x2
    453c:	00f707b3          	add	a5,a4,a5
    4540:	00fd07b3          	add	a5,s10,a5
    4544:	80c7a683          	lw	a3,-2036(a5)
    4548:	82079623          	sh	zero,-2004(a5)
    454c:	0016f613          	andi	a2,a3,1
    4550:	02060c63          	beqz	a2,4588 <main+0x588>
    4554:	8267d603          	lhu	a2,-2010(a5)
    4558:	00f12423          	sw	a5,8(sp)
    455c:	03660663          	beq	a2,s6,4588 <main+0x588>
    4560:	000097b7          	lui	a5,0x9
    4564:	00098693          	mv	a3,s3
    4568:	f8078513          	addi	a0,a5,-128 # 8f80 <ee_printf+0x14e0>
    456c:	000d8593          	mv	a1,s11
    4570:	530030ef          	jal	7aa0 <ee_printf>
    4574:	00812783          	lw	a5,8(sp)
    4578:	82c7d603          	lhu	a2,-2004(a5)
    457c:	80c7a683          	lw	a3,-2036(a5)
    4580:	00160613          	addi	a2,a2,1
    4584:	82c79623          	sh	a2,-2004(a5)
    4588:	0026f793          	andi	a5,a3,2
    458c:	04078663          	beqz	a5,45d8 <main+0x5d8>
    4590:	00412703          	lw	a4,4(sp)
    4594:	01b407b3          	add	a5,s0,s11
    4598:	00279793          	slli	a5,a5,0x2
    459c:	00f707b3          	add	a5,a4,a5
    45a0:	00fd07b3          	add	a5,s10,a5
    45a4:	8287d603          	lhu	a2,-2008(a5)
    45a8:	00f12423          	sw	a5,8(sp)
    45ac:	03760663          	beq	a2,s7,45d8 <main+0x5d8>
    45b0:	00c12683          	lw	a3,12(sp)
    45b4:	000097b7          	lui	a5,0x9
    45b8:	fb078513          	addi	a0,a5,-80 # 8fb0 <ee_printf+0x1510>
    45bc:	000d8593          	mv	a1,s11
    45c0:	4e0030ef          	jal	7aa0 <ee_printf>
    45c4:	00812783          	lw	a5,8(sp)
    45c8:	82c7d603          	lhu	a2,-2004(a5)
    45cc:	80c7a683          	lw	a3,-2036(a5)
    45d0:	00160613          	addi	a2,a2,1
    45d4:	82c79623          	sh	a2,-2004(a5)
    45d8:	0046f693          	andi	a3,a3,4
    45dc:	f00688e3          	beqz	a3,44ec <main+0x4ec>
    45e0:	00412783          	lw	a5,4(sp)
    45e4:	01b40433          	add	s0,s0,s11
    45e8:	00241413          	slli	s0,s0,0x2
    45ec:	00878433          	add	s0,a5,s0
    45f0:	008d0433          	add	s0,s10,s0
    45f4:	82a45603          	lhu	a2,-2006(s0)
    45f8:	37861e63          	bne	a2,s8,4974 <main+0x974>
    45fc:	82c45783          	lhu	a5,-2004(s0)
    4600:	f05ff06f          	j	4504 <main+0x504>
    4604:	00412703          	lw	a4,4(sp)
    4608:	06600793          	li	a5,102
    460c:	7ef71823          	sh	a5,2032(a4)
    4610:	b1dff06f          	j	412c <main+0x12c>
    4614:	02b707b3          	mul	a5,a4,a1
    4618:	06010713          	addi	a4,sp,96
    461c:	01010693          	addi	a3,sp,16
    4620:	00f707b3          	add	a5,a4,a5
    4624:	00001737          	lui	a4,0x1
    4628:	82070713          	addi	a4,a4,-2016 # 820 <_entry+0x820>
    462c:	01070733          	add	a4,a4,a6
    4630:	00d70733          	add	a4,a4,a3
    4634:	7ef72e23          	sw	a5,2044(a4)
    4638:	b4dff06f          	j	4184 <main+0x184>
    463c:	00001837          	lui	a6,0x1
    4640:	fffff537          	lui	a0,0xfffff
    4644:	82080813          	addi	a6,a6,-2016 # 820 <_entry+0x820>
    4648:	00a80833          	add	a6,a6,a0
    464c:	01010513          	addi	a0,sp,16
    4650:	00a80533          	add	a0,a6,a0
    4654:	06010813          	addi	a6,sp,96
    4658:	00a12223          	sw	a0,4(sp)
    465c:	7f052c23          	sw	a6,2040(a0) # fffff7f8 <start_time_val+0xffff61dc>
    4660:	46069063          	bnez	a3,4ac0 <main+0xac0>
    4664:	dc0610e3          	bnez	a2,4424 <main+0x424>
    4668:	b1dff06f          	j	4184 <main+0x184>
    466c:	00010437          	lui	s0,0x10
    4670:	fff40413          	addi	s0,s0,-1 # ffff <start_time_val+0x69e3>
    4674:	00009cb7          	lui	s9,0x9
    4678:	64d020ef          	jal	74c4 <check_data_types>
    467c:	03412583          	lw	a1,52(sp)
    4680:	00850433          	add	s0,a0,s0
    4684:	00009537          	lui	a0,0x9
    4688:	01450513          	addi	a0,a0,20 # 9014 <ee_printf+0x1574>
    468c:	414030ef          	jal	7aa0 <ee_printf>
    4690:	00009537          	lui	a0,0x9
    4694:	00048593          	mv	a1,s1
    4698:	02c50513          	addi	a0,a0,44 # 902c <ee_printf+0x158c>
    469c:	404030ef          	jal	7aa0 <ee_printf>
    46a0:	00048513          	mv	a0,s1
    46a4:	669020ef          	jal	750c <time_in_secs>
    46a8:	00050593          	mv	a1,a0
    46ac:	00009537          	lui	a0,0x9
    46b0:	04450513          	addi	a0,a0,68 # 9044 <ee_printf+0x15a4>
    46b4:	3ec030ef          	jal	7aa0 <ee_printf>
    46b8:	01041413          	slli	s0,s0,0x10
    46bc:	00048513          	mv	a0,s1
    46c0:	01045413          	srli	s0,s0,0x10
    46c4:	649020ef          	jal	750c <time_in_secs>
    46c8:	30051a63          	bnez	a0,49dc <main+0x9dc>
    46cc:	00048513          	mv	a0,s1
    46d0:	63d020ef          	jal	750c <time_in_secs>
    46d4:	00900793          	li	a5,9
    46d8:	2ea7f463          	bgeu	a5,a0,49c0 <main+0x9c0>
    46dc:	01041493          	slli	s1,s0,0x10
    46e0:	4104d493          	srai	s1,s1,0x10
    46e4:	600ca783          	lw	a5,1536(s9) # 9600 <default_num_contexts>
    46e8:	03812583          	lw	a1,56(sp)
    46ec:	00009537          	lui	a0,0x9
    46f0:	0b450513          	addi	a0,a0,180 # 90b4 <ee_printf+0x1614>
    46f4:	02f585b3          	mul	a1,a1,a5
    46f8:	3a8030ef          	jal	7aa0 <ee_printf>
    46fc:	000095b7          	lui	a1,0x9
    4700:	00009537          	lui	a0,0x9
    4704:	0cc58593          	addi	a1,a1,204 # 90cc <ee_printf+0x162c>
    4708:	0d850513          	addi	a0,a0,216 # 90d8 <ee_printf+0x1638>
    470c:	394030ef          	jal	7aa0 <ee_printf>
    4710:	000095b7          	lui	a1,0x9
    4714:	00009537          	lui	a0,0x9
    4718:	f5058593          	addi	a1,a1,-176 # 8f50 <ee_printf+0x14b0>
    471c:	0f050513          	addi	a0,a0,240 # 90f0 <ee_printf+0x1650>
    4720:	380030ef          	jal	7aa0 <ee_printf>
    4724:	000095b7          	lui	a1,0x9
    4728:	00009537          	lui	a0,0x9
    472c:	10858593          	addi	a1,a1,264 # 9108 <ee_printf+0x1668>
    4730:	11050513          	addi	a0,a0,272 # 9110 <ee_printf+0x1670>
    4734:	36c030ef          	jal	7aa0 <ee_printf>
    4738:	00009537          	lui	a0,0x9
    473c:	00090593          	mv	a1,s2
    4740:	12850513          	addi	a0,a0,296 # 9128 <ee_printf+0x1688>
    4744:	35c030ef          	jal	7aa0 <ee_printf>
    4748:	03c12783          	lw	a5,60(sp)
    474c:	0017f693          	andi	a3,a5,1
    4750:	06068a63          	beqz	a3,47c4 <main+0x7c4>
    4754:	600ca683          	lw	a3,1536(s9)
    4758:	06068663          	beqz	a3,47c4 <main+0x7c4>
    475c:	00001737          	lui	a4,0x1
    4760:	fffff7b7          	lui	a5,0xfffff
    4764:	82070713          	addi	a4,a4,-2016 # 820 <_entry+0x820>
    4768:	00f70733          	add	a4,a4,a5
    476c:	01010793          	addi	a5,sp,16
    4770:	00f707b3          	add	a5,a4,a5
    4774:	00000413          	li	s0,0
    4778:	000099b7          	lui	s3,0x9
    477c:	00f12223          	sw	a5,4(sp)
    4780:	00001937          	lui	s2,0x1
    4784:	00412703          	lw	a4,4(sp)
    4788:	00441793          	slli	a5,s0,0x4
    478c:	008787b3          	add	a5,a5,s0
    4790:	00279793          	slli	a5,a5,0x2
    4794:	00f707b3          	add	a5,a4,a5
    4798:	00f907b3          	add	a5,s2,a5
    479c:	8267d603          	lhu	a2,-2010(a5) # ffffe826 <start_time_val+0xffff520a>
    47a0:	00040593          	mv	a1,s0
    47a4:	14498513          	addi	a0,s3,324 # 9144 <ee_printf+0x16a4>
    47a8:	2f8030ef          	jal	7aa0 <ee_printf>
    47ac:	00140413          	addi	s0,s0,1
    47b0:	600ca783          	lw	a5,1536(s9)
    47b4:	01041413          	slli	s0,s0,0x10
    47b8:	01045413          	srli	s0,s0,0x10
    47bc:	fcf464e3          	bltu	s0,a5,4784 <main+0x784>
    47c0:	03c12783          	lw	a5,60(sp)
    47c4:	0027f693          	andi	a3,a5,2
    47c8:	06068a63          	beqz	a3,483c <main+0x83c>
    47cc:	600ca683          	lw	a3,1536(s9)
    47d0:	2e068263          	beqz	a3,4ab4 <main+0xab4>
    47d4:	00001737          	lui	a4,0x1
    47d8:	fffff7b7          	lui	a5,0xfffff
    47dc:	82070713          	addi	a4,a4,-2016 # 820 <_entry+0x820>
    47e0:	00f70733          	add	a4,a4,a5
    47e4:	01010793          	addi	a5,sp,16
    47e8:	00f707b3          	add	a5,a4,a5
    47ec:	00000413          	li	s0,0
    47f0:	000099b7          	lui	s3,0x9
    47f4:	00f12223          	sw	a5,4(sp)
    47f8:	00001937          	lui	s2,0x1
    47fc:	00412703          	lw	a4,4(sp)
    4800:	00441793          	slli	a5,s0,0x4
    4804:	008787b3          	add	a5,a5,s0
    4808:	00279793          	slli	a5,a5,0x2
    480c:	00f707b3          	add	a5,a4,a5
    4810:	00f907b3          	add	a5,s2,a5
    4814:	8287d603          	lhu	a2,-2008(a5) # ffffe828 <start_time_val+0xffff520c>
    4818:	00040593          	mv	a1,s0
    481c:	16098513          	addi	a0,s3,352 # 9160 <ee_printf+0x16c0>
    4820:	280030ef          	jal	7aa0 <ee_printf>
    4824:	00140413          	addi	s0,s0,1
    4828:	600ca783          	lw	a5,1536(s9)
    482c:	01041413          	slli	s0,s0,0x10
    4830:	01045413          	srli	s0,s0,0x10
    4834:	fcf464e3          	bltu	s0,a5,47fc <main+0x7fc>
    4838:	03c12783          	lw	a5,60(sp)
    483c:	0047f793          	andi	a5,a5,4
    4840:	600ca683          	lw	a3,1536(s9)
    4844:	06078663          	beqz	a5,48b0 <main+0x8b0>
    4848:	0c068663          	beqz	a3,4914 <main+0x914>
    484c:	00001737          	lui	a4,0x1
    4850:	fffff7b7          	lui	a5,0xfffff
    4854:	82070713          	addi	a4,a4,-2016 # 820 <_entry+0x820>
    4858:	00f70733          	add	a4,a4,a5
    485c:	01010793          	addi	a5,sp,16
    4860:	00f707b3          	add	a5,a4,a5
    4864:	00000413          	li	s0,0
    4868:	000099b7          	lui	s3,0x9
    486c:	00f12223          	sw	a5,4(sp)
    4870:	00001937          	lui	s2,0x1
    4874:	00412703          	lw	a4,4(sp)
    4878:	00441793          	slli	a5,s0,0x4
    487c:	008787b3          	add	a5,a5,s0
    4880:	00279793          	slli	a5,a5,0x2
    4884:	00f707b3          	add	a5,a4,a5
    4888:	00f907b3          	add	a5,s2,a5
    488c:	82a7d603          	lhu	a2,-2006(a5) # ffffe82a <start_time_val+0xffff520e>
    4890:	00040593          	mv	a1,s0
    4894:	17c98513          	addi	a0,s3,380 # 917c <ee_printf+0x16dc>
    4898:	208030ef          	jal	7aa0 <ee_printf>
    489c:	00140413          	addi	s0,s0,1
    48a0:	600ca783          	lw	a5,1536(s9)
    48a4:	01041413          	slli	s0,s0,0x10
    48a8:	01045413          	srli	s0,s0,0x10
    48ac:	fcf464e3          	bltu	s0,a5,4874 <main+0x874>
    48b0:	00001737          	lui	a4,0x1
    48b4:	600ca783          	lw	a5,1536(s9)
    48b8:	fffff937          	lui	s2,0xfffff
    48bc:	82070713          	addi	a4,a4,-2016 # 820 <_entry+0x820>
    48c0:	01270733          	add	a4,a4,s2
    48c4:	01010693          	addi	a3,sp,16
    48c8:	00000413          	li	s0,0
    48cc:	00009a37          	lui	s4,0x9
    48d0:	00d70933          	add	s2,a4,a3
    48d4:	000019b7          	lui	s3,0x1
    48d8:	02078e63          	beqz	a5,4914 <main+0x914>
    48dc:	00441793          	slli	a5,s0,0x4
    48e0:	008787b3          	add	a5,a5,s0
    48e4:	00279793          	slli	a5,a5,0x2
    48e8:	00f907b3          	add	a5,s2,a5
    48ec:	00f987b3          	add	a5,s3,a5
    48f0:	8247d603          	lhu	a2,-2012(a5)
    48f4:	00040593          	mv	a1,s0
    48f8:	198a0513          	addi	a0,s4,408 # 9198 <ee_printf+0x16f8>
    48fc:	1a4030ef          	jal	7aa0 <ee_printf>
    4900:	00140413          	addi	s0,s0,1
    4904:	600ca783          	lw	a5,1536(s9)
    4908:	01041413          	slli	s0,s0,0x10
    490c:	01045413          	srli	s0,s0,0x10
    4910:	fcf466e3          	bltu	s0,a5,48dc <main+0x8dc>
    4914:	08048e63          	beqz	s1,49b0 <main+0x9b0>
    4918:	08904463          	bgtz	s1,49a0 <main+0x9a0>
    491c:	00009537          	lui	a0,0x9
    4920:	20050513          	addi	a0,a0,512 # 9200 <ee_printf+0x1760>
    4924:	17c030ef          	jal	7aa0 <ee_printf>
    4928:	05e10513          	addi	a0,sp,94
    492c:	3fd020ef          	jal	7528 <portable_fini>
    4930:	08010113          	addi	sp,sp,128
    4934:	7ec12083          	lw	ra,2028(sp)
    4938:	7e812403          	lw	s0,2024(sp)
    493c:	7e412483          	lw	s1,2020(sp)
    4940:	7e012903          	lw	s2,2016(sp)
    4944:	7dc12983          	lw	s3,2012(sp)
    4948:	7d812a03          	lw	s4,2008(sp)
    494c:	7d412a83          	lw	s5,2004(sp)
    4950:	7d012b03          	lw	s6,2000(sp)
    4954:	7cc12b83          	lw	s7,1996(sp)
    4958:	7c812c03          	lw	s8,1992(sp)
    495c:	7c412c83          	lw	s9,1988(sp)
    4960:	7c012d03          	lw	s10,1984(sp)
    4964:	7bc12d83          	lw	s11,1980(sp)
    4968:	00000513          	li	a0,0
    496c:	7f010113          	addi	sp,sp,2032
    4970:	00008067          	ret
    4974:	000097b7          	lui	a5,0x9
    4978:	fe478513          	addi	a0,a5,-28 # 8fe4 <ee_printf+0x1544>
    497c:	000a0693          	mv	a3,s4
    4980:	000d8593          	mv	a1,s11
    4984:	11c030ef          	jal	7aa0 <ee_printf>
    4988:	82c45783          	lhu	a5,-2004(s0)
    498c:	00178793          	addi	a5,a5,1
    4990:	01079793          	slli	a5,a5,0x10
    4994:	0107d793          	srli	a5,a5,0x10
    4998:	82f41623          	sh	a5,-2004(s0)
    499c:	b69ff06f          	j	4504 <main+0x504>
    49a0:	00009537          	lui	a0,0x9
    49a4:	26450513          	addi	a0,a0,612 # 9264 <ee_printf+0x17c4>
    49a8:	0f8030ef          	jal	7aa0 <ee_printf>
    49ac:	f7dff06f          	j	4928 <main+0x928>
    49b0:	00009537          	lui	a0,0x9
    49b4:	1b450513          	addi	a0,a0,436 # 91b4 <ee_printf+0x1714>
    49b8:	0e8030ef          	jal	7aa0 <ee_printf>
    49bc:	f6dff06f          	j	4928 <main+0x928>
    49c0:	00009537          	lui	a0,0x9
    49c4:	00140493          	addi	s1,s0,1
    49c8:	07450513          	addi	a0,a0,116 # 9074 <ee_printf+0x15d4>
    49cc:	01049493          	slli	s1,s1,0x10
    49d0:	0d0030ef          	jal	7aa0 <ee_printf>
    49d4:	4104d493          	srai	s1,s1,0x10
    49d8:	d0dff06f          	j	46e4 <main+0x6e4>
    49dc:	600ca783          	lw	a5,1536(s9)
    49e0:	03812983          	lw	s3,56(sp)
    49e4:	00048513          	mv	a0,s1
    49e8:	02f989b3          	mul	s3,s3,a5
    49ec:	321020ef          	jal	750c <time_in_secs>
    49f0:	00050593          	mv	a1,a0
    49f4:	00009537          	lui	a0,0x9
    49f8:	05c50513          	addi	a0,a0,92 # 905c <ee_printf+0x15bc>
    49fc:	02b9d5b3          	divu	a1,s3,a1
    4a00:	0a0030ef          	jal	7aa0 <ee_printf>
    4a04:	cc9ff06f          	j	46cc <main+0x6cc>
    4a08:	00009537          	lui	a0,0x9
    4a0c:	f5450513          	addi	a0,a0,-172 # 8f54 <ee_printf+0x14b4>
    4a10:	090030ef          	jal	7aa0 <ee_printf>
    4a14:	00009a37          	lui	s4,0x9
    4a18:	0000e9b7          	lui	s3,0xe
    4a1c:	d84a0a13          	addi	s4,s4,-636 # 8d84 <ee_printf+0x12e4>
    4a20:	3c198993          	addi	s3,s3,961 # e3c1 <start_time_val+0x4da5>
    4a24:	74700793          	li	a5,1863
    4a28:	000a0c13          	mv	s8,s4
    4a2c:	00f12623          	sw	a5,12(sp)
    4a30:	74700b93          	li	s7,1863
    4a34:	00098b13          	mv	s6,s3
    4a38:	a7dff06f          	j	44b4 <main+0x4b4>
    4a3c:	00009537          	lui	a0,0x9
    4a40:	e9450513          	addi	a0,a0,-364 # 8e94 <ee_printf+0x13f4>
    4a44:	05c030ef          	jal	7aa0 <ee_printf>
    4a48:	00006a37          	lui	s4,0x6
    4a4c:	0000c7b7          	lui	a5,0xc
    4a50:	0000d9b7          	lui	s3,0xd
    4a54:	e5278793          	addi	a5,a5,-430 # be52 <start_time_val+0x2836>
    4a58:	e47a0a13          	addi	s4,s4,-441 # 5e47 <core_init_matrix+0x37>
    4a5c:	4b098993          	addi	s3,s3,1200 # d4b0 <start_time_val+0x3e94>
    4a60:	00f12623          	sw	a5,12(sp)
    4a64:	000a0c13          	mv	s8,s4
    4a68:	00078b93          	mv	s7,a5
    4a6c:	00098b13          	mv	s6,s3
    4a70:	a45ff06f          	j	44b4 <main+0x4b4>
    4a74:	00009537          	lui	a0,0x9
    4a78:	ec450513          	addi	a0,a0,-316 # 8ec4 <ee_printf+0x1424>
    4a7c:	024030ef          	jal	7aa0 <ee_printf>
    4a80:	00004a37          	lui	s4,0x4
    4a84:	000017b7          	lui	a5,0x1
    4a88:	000039b7          	lui	s3,0x3
    4a8c:	19978793          	addi	a5,a5,409 # 1199 <_entry+0x1199>
    4a90:	9bfa0a13          	addi	s4,s4,-1601 # 39bf <_entry+0x39bf>
    4a94:	34098993          	addi	s3,s3,832 # 3340 <_entry+0x3340>
    4a98:	00f12623          	sw	a5,12(sp)
    4a9c:	000a0c13          	mv	s8,s4
    4aa0:	00078b93          	mv	s7,a5
    4aa4:	00098b13          	mv	s6,s3
    4aa8:	a0dff06f          	j	44b4 <main+0x4b4>
    4aac:	00000413          	li	s0,0
    4ab0:	bc9ff06f          	j	4678 <main+0x678>
    4ab4:	0047f793          	andi	a5,a5,4
    4ab8:	de078ce3          	beqz	a5,48b0 <main+0x8b0>
    4abc:	e59ff06f          	j	4914 <main+0x914>
    4ac0:	02b70733          	mul	a4,a4,a1
    4ac4:	06010513          	addi	a0,sp,96
    4ac8:	fffff6b7          	lui	a3,0xfffff
    4acc:	00e50733          	add	a4,a0,a4
    4ad0:	00001537          	lui	a0,0x1
    4ad4:	82050513          	addi	a0,a0,-2016 # 820 <_entry+0x820>
    4ad8:	00d50533          	add	a0,a0,a3
    4adc:	01010693          	addi	a3,sp,16
    4ae0:	00d506b3          	add	a3,a0,a3
    4ae4:	00d12223          	sw	a3,4(sp)
    4ae8:	7ee6ae23          	sw	a4,2044(a3) # fffff7fc <start_time_val+0xffff61e0>
    4aec:	92061ce3          	bnez	a2,4424 <main+0x424>
    4af0:	e94ff06f          	j	4184 <main+0x184>

00004af4 <calc_func>:
    4af4:	fe010113          	addi	sp,sp,-32
    4af8:	00812c23          	sw	s0,24(sp)
    4afc:	00051403          	lh	s0,0(a0)
    4b00:	00112e23          	sw	ra,28(sp)
    4b04:	40745793          	srai	a5,s0,0x7
    4b08:	0017f793          	andi	a5,a5,1
    4b0c:	00078c63          	beqz	a5,4b24 <calc_func+0x30>
    4b10:	01c12083          	lw	ra,28(sp)
    4b14:	07f47513          	andi	a0,s0,127
    4b18:	01812403          	lw	s0,24(sp)
    4b1c:	02010113          	addi	sp,sp,32
    4b20:	00008067          	ret
    4b24:	40345713          	srai	a4,s0,0x3
    4b28:	00f77713          	andi	a4,a4,15
    4b2c:	00471693          	slli	a3,a4,0x4
    4b30:	0385d783          	lhu	a5,56(a1)
    4b34:	00912a23          	sw	s1,20(sp)
    4b38:	01312623          	sw	s3,12(sp)
    4b3c:	00058493          	mv	s1,a1
    4b40:	01212823          	sw	s2,16(sp)
    4b44:	00d705b3          	add	a1,a4,a3
    4b48:	00747613          	andi	a2,s0,7
    4b4c:	00050993          	mv	s3,a0
    4b50:	00058713          	mv	a4,a1
    4b54:	08060063          	beqz	a2,4bd4 <calc_func+0xe0>
    4b58:	00100693          	li	a3,1
    4b5c:	06d61463          	bne	a2,a3,4bc4 <calc_func+0xd0>
    4b60:	00078613          	mv	a2,a5
    4b64:	02848513          	addi	a0,s1,40
    4b68:	26c010ef          	jal	5dd4 <core_bench_matrix>
    4b6c:	03c4d783          	lhu	a5,60(s1)
    4b70:	01051913          	slli	s2,a0,0x10
    4b74:	41095913          	srai	s2,s2,0x10
    4b78:	08079c63          	bnez	a5,4c10 <calc_func+0x11c>
    4b7c:	0384d783          	lhu	a5,56(s1)
    4b80:	02a49e23          	sh	a0,60(s1)
    4b84:	00078593          	mv	a1,a5
    4b88:	004020ef          	jal	6b8c <crcu16>
    4b8c:	00050793          	mv	a5,a0
    4b90:	f0047413          	andi	s0,s0,-256
    4b94:	07f97513          	andi	a0,s2,127
    4b98:	00856433          	or	s0,a0,s0
    4b9c:	02f49c23          	sh	a5,56(s1)
    4ba0:	08046413          	ori	s0,s0,128
    4ba4:	00899023          	sh	s0,0(s3)
    4ba8:	01c12083          	lw	ra,28(sp)
    4bac:	01812403          	lw	s0,24(sp)
    4bb0:	01412483          	lw	s1,20(sp)
    4bb4:	01012903          	lw	s2,16(sp)
    4bb8:	00c12983          	lw	s3,12(sp)
    4bbc:	02010113          	addi	sp,sp,32
    4bc0:	00008067          	ret
    4bc4:	01041513          	slli	a0,s0,0x10
    4bc8:	01055513          	srli	a0,a0,0x10
    4bcc:	00040913          	mv	s2,s0
    4bd0:	fb5ff06f          	j	4b84 <calc_func+0x90>
    4bd4:	02100693          	li	a3,33
    4bd8:	00b6e463          	bltu	a3,a1,4be0 <calc_func+0xec>
    4bdc:	02200713          	li	a4,34
    4be0:	00249683          	lh	a3,2(s1)
    4be4:	00049603          	lh	a2,0(s1)
    4be8:	0144a583          	lw	a1,20(s1)
    4bec:	0184a503          	lw	a0,24(s1)
    4bf0:	3e9010ef          	jal	67d8 <core_bench_state>
    4bf4:	03e4d783          	lhu	a5,62(s1)
    4bf8:	01051913          	slli	s2,a0,0x10
    4bfc:	41095913          	srai	s2,s2,0x10
    4c00:	00079863          	bnez	a5,4c10 <calc_func+0x11c>
    4c04:	0384d783          	lhu	a5,56(s1)
    4c08:	02a49f23          	sh	a0,62(s1)
    4c0c:	f79ff06f          	j	4b84 <calc_func+0x90>
    4c10:	0384d783          	lhu	a5,56(s1)
    4c14:	f71ff06f          	j	4b84 <calc_func+0x90>

00004c18 <cmp_complex>:
    4c18:	fe010113          	addi	sp,sp,-32
    4c1c:	00912a23          	sw	s1,20(sp)
    4c20:	00051483          	lh	s1,0(a0)
    4c24:	00812c23          	sw	s0,24(sp)
    4c28:	01212823          	sw	s2,16(sp)
    4c2c:	4074d793          	srai	a5,s1,0x7
    4c30:	01412423          	sw	s4,8(sp)
    4c34:	00112e23          	sw	ra,28(sp)
    4c38:	01312623          	sw	s3,12(sp)
    4c3c:	0017f793          	andi	a5,a5,1
    4c40:	00058913          	mv	s2,a1
    4c44:	00060413          	mv	s0,a2
    4c48:	07f4fa13          	andi	s4,s1,127
    4c4c:	06079a63          	bnez	a5,4cc0 <cmp_complex+0xa8>
    4c50:	4034d713          	srai	a4,s1,0x3
    4c54:	00f77713          	andi	a4,a4,15
    4c58:	00471693          	slli	a3,a4,0x4
    4c5c:	00d705b3          	add	a1,a4,a3
    4c60:	0074f613          	andi	a2,s1,7
    4c64:	03845783          	lhu	a5,56(s0)
    4c68:	00050993          	mv	s3,a0
    4c6c:	00058713          	mv	a4,a1
    4c70:	14060863          	beqz	a2,4dc0 <cmp_complex+0x1a8>
    4c74:	00100693          	li	a3,1
    4c78:	0ed61663          	bne	a2,a3,4d64 <cmp_complex+0x14c>
    4c7c:	00078613          	mv	a2,a5
    4c80:	02840513          	addi	a0,s0,40
    4c84:	150010ef          	jal	5dd4 <core_bench_matrix>
    4c88:	03c45783          	lhu	a5,60(s0)
    4c8c:	01051a13          	slli	s4,a0,0x10
    4c90:	410a5a13          	srai	s4,s4,0x10
    4c94:	16079463          	bnez	a5,4dfc <cmp_complex+0x1e4>
    4c98:	03845783          	lhu	a5,56(s0)
    4c9c:	02a41e23          	sh	a0,60(s0)
    4ca0:	00078593          	mv	a1,a5
    4ca4:	07fa7a13          	andi	s4,s4,127
    4ca8:	f004f493          	andi	s1,s1,-256
    4cac:	6e1010ef          	jal	6b8c <crcu16>
    4cb0:	009a64b3          	or	s1,s4,s1
    4cb4:	02a41c23          	sh	a0,56(s0)
    4cb8:	0804e493          	ori	s1,s1,128
    4cbc:	00999023          	sh	s1,0(s3)
    4cc0:	00091483          	lh	s1,0(s2) # fffff000 <start_time_val+0xffff59e4>
    4cc4:	4074d793          	srai	a5,s1,0x7
    4cc8:	0017f793          	andi	a5,a5,1
    4ccc:	07f4f993          	andi	s3,s1,127
    4cd0:	06079863          	bnez	a5,4d40 <cmp_complex+0x128>
    4cd4:	4034d713          	srai	a4,s1,0x3
    4cd8:	00f77713          	andi	a4,a4,15
    4cdc:	00471693          	slli	a3,a4,0x4
    4ce0:	00d705b3          	add	a1,a4,a3
    4ce4:	0074f613          	andi	a2,s1,7
    4ce8:	03845783          	lhu	a5,56(s0)
    4cec:	00058713          	mv	a4,a1
    4cf0:	08060a63          	beqz	a2,4d84 <cmp_complex+0x16c>
    4cf4:	00100693          	li	a3,1
    4cf8:	06d61e63          	bne	a2,a3,4d74 <cmp_complex+0x15c>
    4cfc:	00078613          	mv	a2,a5
    4d00:	02840513          	addi	a0,s0,40
    4d04:	0d0010ef          	jal	5dd4 <core_bench_matrix>
    4d08:	03c45783          	lhu	a5,60(s0)
    4d0c:	01051993          	slli	s3,a0,0x10
    4d10:	4109d993          	srai	s3,s3,0x10
    4d14:	0e079863          	bnez	a5,4e04 <cmp_complex+0x1ec>
    4d18:	03845783          	lhu	a5,56(s0)
    4d1c:	02a41e23          	sh	a0,60(s0)
    4d20:	00078593          	mv	a1,a5
    4d24:	07f9f993          	andi	s3,s3,127
    4d28:	f004f493          	andi	s1,s1,-256
    4d2c:	661010ef          	jal	6b8c <crcu16>
    4d30:	0099e4b3          	or	s1,s3,s1
    4d34:	02a41c23          	sh	a0,56(s0)
    4d38:	0804e493          	ori	s1,s1,128
    4d3c:	00991023          	sh	s1,0(s2)
    4d40:	01c12083          	lw	ra,28(sp)
    4d44:	01812403          	lw	s0,24(sp)
    4d48:	413a0533          	sub	a0,s4,s3
    4d4c:	01412483          	lw	s1,20(sp)
    4d50:	01012903          	lw	s2,16(sp)
    4d54:	00c12983          	lw	s3,12(sp)
    4d58:	00812a03          	lw	s4,8(sp)
    4d5c:	02010113          	addi	sp,sp,32
    4d60:	00008067          	ret
    4d64:	01049513          	slli	a0,s1,0x10
    4d68:	01055513          	srli	a0,a0,0x10
    4d6c:	00048a13          	mv	s4,s1
    4d70:	f31ff06f          	j	4ca0 <cmp_complex+0x88>
    4d74:	01049513          	slli	a0,s1,0x10
    4d78:	01055513          	srli	a0,a0,0x10
    4d7c:	00048993          	mv	s3,s1
    4d80:	fa1ff06f          	j	4d20 <cmp_complex+0x108>
    4d84:	02100693          	li	a3,33
    4d88:	00b6e463          	bltu	a3,a1,4d90 <cmp_complex+0x178>
    4d8c:	02200713          	li	a4,34
    4d90:	00241683          	lh	a3,2(s0)
    4d94:	00041603          	lh	a2,0(s0)
    4d98:	01442583          	lw	a1,20(s0)
    4d9c:	01842503          	lw	a0,24(s0)
    4da0:	239010ef          	jal	67d8 <core_bench_state>
    4da4:	03e45783          	lhu	a5,62(s0)
    4da8:	01051993          	slli	s3,a0,0x10
    4dac:	4109d993          	srai	s3,s3,0x10
    4db0:	04079a63          	bnez	a5,4e04 <cmp_complex+0x1ec>
    4db4:	03845783          	lhu	a5,56(s0)
    4db8:	02a41f23          	sh	a0,62(s0)
    4dbc:	f65ff06f          	j	4d20 <cmp_complex+0x108>
    4dc0:	02100693          	li	a3,33
    4dc4:	00b6e463          	bltu	a3,a1,4dcc <cmp_complex+0x1b4>
    4dc8:	02200713          	li	a4,34
    4dcc:	00241683          	lh	a3,2(s0)
    4dd0:	00041603          	lh	a2,0(s0)
    4dd4:	01442583          	lw	a1,20(s0)
    4dd8:	01842503          	lw	a0,24(s0)
    4ddc:	1fd010ef          	jal	67d8 <core_bench_state>
    4de0:	03e45783          	lhu	a5,62(s0)
    4de4:	01051a13          	slli	s4,a0,0x10
    4de8:	410a5a13          	srai	s4,s4,0x10
    4dec:	00079863          	bnez	a5,4dfc <cmp_complex+0x1e4>
    4df0:	03845783          	lhu	a5,56(s0)
    4df4:	02a41f23          	sh	a0,62(s0)
    4df8:	ea9ff06f          	j	4ca0 <cmp_complex+0x88>
    4dfc:	03845783          	lhu	a5,56(s0)
    4e00:	ea1ff06f          	j	4ca0 <cmp_complex+0x88>
    4e04:	03845783          	lhu	a5,56(s0)
    4e08:	f19ff06f          	j	4d20 <cmp_complex+0x108>

00004e0c <cmp_idx>:
    4e0c:	00060a63          	beqz	a2,4e20 <cmp_idx+0x14>
    4e10:	00251503          	lh	a0,2(a0)
    4e14:	00259783          	lh	a5,2(a1)
    4e18:	40f50533          	sub	a0,a0,a5
    4e1c:	00008067          	ret
    4e20:	00051783          	lh	a5,0(a0)
    4e24:	01079713          	slli	a4,a5,0x10
    4e28:	01075713          	srli	a4,a4,0x10
    4e2c:	00875713          	srli	a4,a4,0x8
    4e30:	f007f793          	andi	a5,a5,-256
    4e34:	00e7e7b3          	or	a5,a5,a4
    4e38:	00f51023          	sh	a5,0(a0)
    4e3c:	00059783          	lh	a5,0(a1)
    4e40:	00251503          	lh	a0,2(a0)
    4e44:	01079713          	slli	a4,a5,0x10
    4e48:	01075713          	srli	a4,a4,0x10
    4e4c:	00875713          	srli	a4,a4,0x8
    4e50:	f007f793          	andi	a5,a5,-256
    4e54:	00e7e7b3          	or	a5,a5,a4
    4e58:	00f59023          	sh	a5,0(a1)
    4e5c:	00259783          	lh	a5,2(a1)
    4e60:	40f50533          	sub	a0,a0,a5
    4e64:	00008067          	ret

00004e68 <copy_info>:
    4e68:	00059703          	lh	a4,0(a1)
    4e6c:	00259783          	lh	a5,2(a1)
    4e70:	00e51023          	sh	a4,0(a0)
    4e74:	00f51123          	sh	a5,2(a0)
    4e78:	00008067          	ret

00004e7c <core_bench_list>:
    4e7c:	00451883          	lh	a7,4(a0)
    4e80:	fc010113          	addi	sp,sp,-64
    4e84:	02812c23          	sw	s0,56(sp)
    4e88:	03612023          	sw	s6,32(sp)
    4e8c:	01712e23          	sw	s7,28(sp)
    4e90:	02112e23          	sw	ra,60(sp)
    4e94:	02912a23          	sw	s1,52(sp)
    4e98:	03212823          	sw	s2,48(sp)
    4e9c:	03312623          	sw	s3,44(sp)
    4ea0:	03412423          	sw	s4,40(sp)
    4ea4:	03512223          	sw	s5,36(sp)
    4ea8:	01812c23          	sw	s8,24(sp)
    4eac:	01912a23          	sw	s9,20(sp)
    4eb0:	01a12823          	sw	s10,16(sp)
    4eb4:	01b12623          	sw	s11,12(sp)
    4eb8:	02452403          	lw	s0,36(a0)
    4ebc:	00050b13          	mv	s6,a0
    4ec0:	00058b93          	mv	s7,a1
    4ec4:	00058513          	mv	a0,a1
    4ec8:	43105e63          	blez	a7,5304 <core_bench_list+0x488>
    4ecc:	00000613          	li	a2,0
    4ed0:	00000813          	li	a6,0
    4ed4:	00000593          	li	a1,0
    4ed8:	00000493          	li	s1,0
    4edc:	0ff67c93          	zext.b	s9,a2
    4ee0:	260bca63          	bltz	s7,5154 <core_bench_list+0x2d8>
    4ee4:	42040663          	beqz	s0,5310 <core_bench_list+0x494>
    4ee8:	00040793          	mv	a5,s0
    4eec:	00c0006f          	j	4ef8 <core_bench_list+0x7c>
    4ef0:	0007a783          	lw	a5,0(a5)
    4ef4:	00078863          	beqz	a5,4f04 <core_bench_list+0x88>
    4ef8:	0047a703          	lw	a4,4(a5)
    4efc:	00271703          	lh	a4,2(a4)
    4f00:	ff7718e3          	bne	a4,s7,4ef0 <core_bench_list+0x74>
    4f04:	00000693          	li	a3,0
    4f08:	0080006f          	j	4f10 <core_bench_list+0x94>
    4f0c:	00070413          	mv	s0,a4
    4f10:	00042703          	lw	a4,0(s0)
    4f14:	00d42023          	sw	a3,0(s0)
    4f18:	00040693          	mv	a3,s0
    4f1c:	fe0718e3          	bnez	a4,4f0c <core_bench_list+0x90>
    4f20:	24078c63          	beqz	a5,5178 <core_bench_list+0x2fc>
    4f24:	0047a703          	lw	a4,4(a5)
    4f28:	00071703          	lh	a4,0(a4)
    4f2c:	00177693          	andi	a3,a4,1
    4f30:	00068c63          	beqz	a3,4f48 <core_bench_list+0xcc>
    4f34:	40975713          	srai	a4,a4,0x9
    4f38:	00177713          	andi	a4,a4,1
    4f3c:	00e48733          	add	a4,s1,a4
    4f40:	01071493          	slli	s1,a4,0x10
    4f44:	0104d493          	srli	s1,s1,0x10
    4f48:	0007a703          	lw	a4,0(a5)
    4f4c:	00070c63          	beqz	a4,4f64 <core_bench_list+0xe8>
    4f50:	00072683          	lw	a3,0(a4)
    4f54:	00d7a023          	sw	a3,0(a5)
    4f58:	00042783          	lw	a5,0(s0)
    4f5c:	00f72023          	sw	a5,0(a4)
    4f60:	00e42023          	sw	a4,0(s0)
    4f64:	00158793          	addi	a5,a1,1
    4f68:	01079593          	slli	a1,a5,0x10
    4f6c:	0105d593          	srli	a1,a1,0x10
    4f70:	000bc863          	bltz	s7,4f80 <core_bench_list+0x104>
    4f74:	001b8b93          	addi	s7,s7,1
    4f78:	010b9b93          	slli	s7,s7,0x10
    4f7c:	410bdb93          	srai	s7,s7,0x10
    4f80:	00160613          	addi	a2,a2,1
    4f84:	01061613          	slli	a2,a2,0x10
    4f88:	41065613          	srai	a2,a2,0x10
    4f8c:	f4c898e3          	bne	a7,a2,4edc <core_bench_list+0x60>
    4f90:	00259793          	slli	a5,a1,0x2
    4f94:	410787b3          	sub	a5,a5,a6
    4f98:	00f484b3          	add	s1,s1,a5
    4f9c:	01049493          	slli	s1,s1,0x10
    4fa0:	0104d493          	srli	s1,s1,0x10
    4fa4:	26a04263          	bgtz	a0,5208 <core_bench_list+0x38c>
    4fa8:	00042783          	lw	a5,0(s0)
    4fac:	00040913          	mv	s2,s0
    4fb0:	0007a983          	lw	s3,0(a5)
    4fb4:	0047a703          	lw	a4,4(a5)
    4fb8:	0049a603          	lw	a2,4(s3)
    4fbc:	0009a683          	lw	a3,0(s3)
    4fc0:	00c7a223          	sw	a2,4(a5)
    4fc4:	00e9a223          	sw	a4,4(s3)
    4fc8:	00d7a023          	sw	a3,0(a5)
    4fcc:	0009a023          	sw	zero,0(s3)
    4fd0:	0e0bca63          	bltz	s7,50c4 <core_bench_list+0x248>
    4fd4:	00492783          	lw	a5,4(s2)
    4fd8:	00279783          	lh	a5,2(a5)
    4fdc:	01778c63          	beq	a5,s7,4ff4 <core_bench_list+0x178>
    4fe0:	00092903          	lw	s2,0(s2)
    4fe4:	2e090863          	beqz	s2,52d4 <core_bench_list+0x458>
    4fe8:	00492783          	lw	a5,4(s2)
    4fec:	00279783          	lh	a5,2(a5)
    4ff0:	ff7798e3          	bne	a5,s7,4fe0 <core_bench_list+0x164>
    4ff4:	00442783          	lw	a5,4(s0)
    4ff8:	00048593          	mv	a1,s1
    4ffc:	00079503          	lh	a0,0(a5)
    5000:	270020ef          	jal	7270 <crc16>
    5004:	00092903          	lw	s2,0(s2)
    5008:	00050493          	mv	s1,a0
    500c:	fe0914e3          	bnez	s2,4ff4 <core_bench_list+0x178>
    5010:	00042903          	lw	s2,0(s0)
    5014:	0049a703          	lw	a4,4(s3)
    5018:	00492683          	lw	a3,4(s2)
    501c:	00092783          	lw	a5,0(s2)
    5020:	00100e93          	li	t4,1
    5024:	00d9a223          	sw	a3,4(s3)
    5028:	00e92223          	sw	a4,4(s2)
    502c:	00f9a023          	sw	a5,0(s3)
    5030:	01392023          	sw	s3,0(s2)
    5034:	00100f93          	li	t6,1
    5038:	10040a63          	beqz	s0,514c <core_bench_list+0x2d0>
    503c:	00000693          	li	a3,0
    5040:	00000913          	li	s2,0
    5044:	00000f13          	li	t5,0
    5048:	001f0f13          	addi	t5,t5,1
    504c:	00040713          	mv	a4,s0
    5050:	00000793          	li	a5,0
    5054:	01d7d863          	bge	a5,t4,5064 <core_bench_list+0x1e8>
    5058:	00072703          	lw	a4,0(a4)
    505c:	00178793          	addi	a5,a5,1
    5060:	fe071ae3          	bnez	a4,5054 <core_bench_list+0x1d8>
    5064:	00040613          	mv	a2,s0
    5068:	000e8593          	mv	a1,t4
    506c:	00070413          	mv	s0,a4
    5070:	02f05263          	blez	a5,5094 <core_bench_list+0x218>
    5074:	06059063          	bnez	a1,50d4 <core_bench_list+0x258>
    5078:	00060713          	mv	a4,a2
    507c:	00062603          	lw	a2,0(a2)
    5080:	fff78793          	addi	a5,a5,-1
    5084:	02068663          	beqz	a3,50b0 <core_bench_list+0x234>
    5088:	00e6a023          	sw	a4,0(a3)
    508c:	00070693          	mv	a3,a4
    5090:	fef042e3          	bgtz	a5,5074 <core_bench_list+0x1f8>
    5094:	0ab05063          	blez	a1,5134 <core_bench_list+0x2b8>
    5098:	0a040063          	beqz	s0,5138 <core_bench_list+0x2bc>
    509c:	02079e63          	bnez	a5,50d8 <core_bench_list+0x25c>
    50a0:	00040713          	mv	a4,s0
    50a4:	fff58593          	addi	a1,a1,-1
    50a8:	00042403          	lw	s0,0(s0)
    50ac:	fc069ee3          	bnez	a3,5088 <core_bench_list+0x20c>
    50b0:	00070913          	mv	s2,a4
    50b4:	00070693          	mv	a3,a4
    50b8:	fd9ff06f          	j	5090 <core_bench_list+0x214>
    50bc:	00092903          	lw	s2,0(s2)
    50c0:	20090a63          	beqz	s2,52d4 <core_bench_list+0x458>
    50c4:	00492783          	lw	a5,4(s2)
    50c8:	0007c783          	lbu	a5,0(a5)
    50cc:	fefc98e3          	bne	s9,a5,50bc <core_bench_list+0x240>
    50d0:	f25ff06f          	j	4ff4 <core_bench_list+0x178>
    50d4:	fa0402e3          	beqz	s0,5078 <core_bench_list+0x1fc>
    50d8:	00462803          	lw	a6,4(a2)
    50dc:	00442503          	lw	a0,4(s0)
    50e0:	00081703          	lh	a4,0(a6)
    50e4:	00251303          	lh	t1,2(a0)
    50e8:	00281e03          	lh	t3,2(a6)
    50ec:	01071893          	slli	a7,a4,0x10
    50f0:	0108d893          	srli	a7,a7,0x10
    50f4:	f0077713          	andi	a4,a4,-256
    50f8:	0088d893          	srli	a7,a7,0x8
    50fc:	01176733          	or	a4,a4,a7
    5100:	00e81023          	sh	a4,0(a6)
    5104:	00051703          	lh	a4,0(a0)
    5108:	01071813          	slli	a6,a4,0x10
    510c:	01085813          	srli	a6,a6,0x10
    5110:	f0077713          	andi	a4,a4,-256
    5114:	00885813          	srli	a6,a6,0x8
    5118:	01076733          	or	a4,a4,a6
    511c:	00e51023          	sh	a4,0(a0)
    5120:	f5c35ce3          	bge	t1,t3,5078 <core_bench_list+0x1fc>
    5124:	00040713          	mv	a4,s0
    5128:	fff58593          	addi	a1,a1,-1
    512c:	00042403          	lw	s0,0(s0)
    5130:	f55ff06f          	j	5084 <core_bench_list+0x208>
    5134:	f0041ae3          	bnez	s0,5048 <core_bench_list+0x1cc>
    5138:	0006a023          	sw	zero,0(a3)
    513c:	07ff0463          	beq	t5,t6,51a4 <core_bench_list+0x328>
    5140:	00090413          	mv	s0,s2
    5144:	001e9e93          	slli	t4,t4,0x1
    5148:	ee041ae3          	bnez	s0,503c <core_bench_list+0x1c0>
    514c:	00002023          	sw	zero,0(zero) # 0 <_entry>
    5150:	00100073          	ebreak
    5154:	1a040e63          	beqz	s0,5310 <core_bench_list+0x494>
    5158:	00040793          	mv	a5,s0
    515c:	00c0006f          	j	5168 <core_bench_list+0x2ec>
    5160:	0007a783          	lw	a5,0(a5)
    5164:	da0780e3          	beqz	a5,4f04 <core_bench_list+0x88>
    5168:	0047a703          	lw	a4,4(a5)
    516c:	00074703          	lbu	a4,0(a4)
    5170:	feec98e3          	bne	s9,a4,5160 <core_bench_list+0x2e4>
    5174:	d91ff06f          	j	4f04 <core_bench_list+0x88>
    5178:	00042783          	lw	a5,0(s0)
    517c:	00180813          	addi	a6,a6,1
    5180:	01081813          	slli	a6,a6,0x10
    5184:	0047a783          	lw	a5,4(a5)
    5188:	01085813          	srli	a6,a6,0x10
    518c:	00178783          	lb	a5,1(a5)
    5190:	0017f793          	andi	a5,a5,1
    5194:	00f487b3          	add	a5,s1,a5
    5198:	01079493          	slli	s1,a5,0x10
    519c:	0104d493          	srli	s1,s1,0x10
    51a0:	dd1ff06f          	j	4f70 <core_bench_list+0xf4>
    51a4:	00092403          	lw	s0,0(s2)
    51a8:	02040063          	beqz	s0,51c8 <core_bench_list+0x34c>
    51ac:	00492783          	lw	a5,4(s2)
    51b0:	00048593          	mv	a1,s1
    51b4:	00079503          	lh	a0,0(a5)
    51b8:	0b8020ef          	jal	7270 <crc16>
    51bc:	00042403          	lw	s0,0(s0)
    51c0:	00050493          	mv	s1,a0
    51c4:	fe0414e3          	bnez	s0,51ac <core_bench_list+0x330>
    51c8:	03c12083          	lw	ra,60(sp)
    51cc:	03812403          	lw	s0,56(sp)
    51d0:	03012903          	lw	s2,48(sp)
    51d4:	02c12983          	lw	s3,44(sp)
    51d8:	02812a03          	lw	s4,40(sp)
    51dc:	02412a83          	lw	s5,36(sp)
    51e0:	02012b03          	lw	s6,32(sp)
    51e4:	01c12b83          	lw	s7,28(sp)
    51e8:	01812c03          	lw	s8,24(sp)
    51ec:	01412c83          	lw	s9,20(sp)
    51f0:	01012d03          	lw	s10,16(sp)
    51f4:	00c12d83          	lw	s11,12(sp)
    51f8:	00048513          	mv	a0,s1
    51fc:	03412483          	lw	s1,52(sp)
    5200:	04010113          	addi	sp,sp,64
    5204:	00008067          	ret
    5208:	00100a13          	li	s4,1
    520c:	f40400e3          	beqz	s0,514c <core_bench_list+0x2d0>
    5210:	00000993          	li	s3,0
    5214:	00000a93          	li	s5,0
    5218:	00000c13          	li	s8,0
    521c:	001c0c13          	addi	s8,s8,1
    5220:	00040793          	mv	a5,s0
    5224:	00000913          	li	s2,0
    5228:	01495863          	bge	s2,s4,5238 <core_bench_list+0x3bc>
    522c:	0007a783          	lw	a5,0(a5)
    5230:	00190913          	addi	s2,s2,1
    5234:	fe079ae3          	bnez	a5,5228 <core_bench_list+0x3ac>
    5238:	00040d93          	mv	s11,s0
    523c:	000a0d13          	mv	s10,s4
    5240:	00078413          	mv	s0,a5
    5244:	03205263          	blez	s2,5268 <core_bench_list+0x3ec>
    5248:	040d1463          	bnez	s10,5290 <core_bench_list+0x414>
    524c:	000d8793          	mv	a5,s11
    5250:	000dad83          	lw	s11,0(s11)
    5254:	fff90913          	addi	s2,s2,-1
    5258:	02098663          	beqz	s3,5284 <core_bench_list+0x408>
    525c:	00f9a023          	sw	a5,0(s3)
    5260:	00078993          	mv	s3,a5
    5264:	ff2042e3          	bgtz	s2,5248 <core_bench_list+0x3cc>
    5268:	05a05863          	blez	s10,52b8 <core_bench_list+0x43c>
    526c:	04040863          	beqz	s0,52bc <core_bench_list+0x440>
    5270:	02091263          	bnez	s2,5294 <core_bench_list+0x418>
    5274:	00040793          	mv	a5,s0
    5278:	fffd0d13          	addi	s10,s10,-1 # fff <_entry+0xfff>
    527c:	00042403          	lw	s0,0(s0)
    5280:	fc099ee3          	bnez	s3,525c <core_bench_list+0x3e0>
    5284:	00078a93          	mv	s5,a5
    5288:	00078993          	mv	s3,a5
    528c:	fd9ff06f          	j	5264 <core_bench_list+0x3e8>
    5290:	fa040ee3          	beqz	s0,524c <core_bench_list+0x3d0>
    5294:	00442583          	lw	a1,4(s0)
    5298:	004da503          	lw	a0,4(s11)
    529c:	000b0613          	mv	a2,s6
    52a0:	979ff0ef          	jal	4c18 <cmp_complex>
    52a4:	faa054e3          	blez	a0,524c <core_bench_list+0x3d0>
    52a8:	00040793          	mv	a5,s0
    52ac:	fffd0d13          	addi	s10,s10,-1
    52b0:	00042403          	lw	s0,0(s0)
    52b4:	fa5ff06f          	j	5258 <core_bench_list+0x3dc>
    52b8:	f60412e3          	bnez	s0,521c <core_bench_list+0x3a0>
    52bc:	0009a023          	sw	zero,0(s3)
    52c0:	00100793          	li	a5,1
    52c4:	02fc0c63          	beq	s8,a5,52fc <core_bench_list+0x480>
    52c8:	001a1a13          	slli	s4,s4,0x1
    52cc:	000a8413          	mv	s0,s5
    52d0:	f3dff06f          	j	520c <core_bench_list+0x390>
    52d4:	00042903          	lw	s2,0(s0)
    52d8:	d40900e3          	beqz	s2,5018 <core_bench_list+0x19c>
    52dc:	00442783          	lw	a5,4(s0)
    52e0:	00048593          	mv	a1,s1
    52e4:	00079503          	lh	a0,0(a5)
    52e8:	789010ef          	jal	7270 <crc16>
    52ec:	00092903          	lw	s2,0(s2)
    52f0:	00050493          	mv	s1,a0
    52f4:	d00910e3          	bnez	s2,4ff4 <core_bench_list+0x178>
    52f8:	d19ff06f          	j	5010 <core_bench_list+0x194>
    52fc:	000a8413          	mv	s0,s5
    5300:	ca9ff06f          	j	4fa8 <core_bench_list+0x12c>
    5304:	00000493          	li	s1,0
    5308:	00000c93          	li	s9,0
    530c:	c99ff06f          	j	4fa4 <core_bench_list+0x128>
    5310:	00002783          	lw	a5,0(zero) # 0 <_entry>
    5314:	00100073          	ebreak

00005318 <core_list_init>:
    5318:	01400793          	li	a5,20
    531c:	02f55533          	divu	a0,a0,a5
    5320:	ffff87b7          	lui	a5,0xffff8
    5324:	0005a023          	sw	zero,0(a1)
    5328:	08078793          	addi	a5,a5,128 # ffff8080 <start_time_val+0xfffeea64>
    532c:	01058813          	addi	a6,a1,16
    5330:	00058713          	mv	a4,a1
    5334:	00858693          	addi	a3,a1,8
    5338:	00060f13          	mv	t5,a2
    533c:	ffe50513          	addi	a0,a0,-2
    5340:	00351893          	slli	a7,a0,0x3
    5344:	011588b3          	add	a7,a1,a7
    5348:	0115a223          	sw	a7,4(a1)
    534c:	00251f93          	slli	t6,a0,0x2
    5350:	00089123          	sh	zero,2(a7)
    5354:	00f89023          	sh	a5,0(a7)
    5358:	01f88fb3          	add	t6,a7,t6
    535c:	00488593          	addi	a1,a7,4
    5360:	25187e63          	bgeu	a6,a7,55bc <core_list_init+0x2a4>
    5364:	00888313          	addi	t1,a7,8
    5368:	25f37a63          	bgeu	t1,t6,55bc <core_list_init+0x2a4>
    536c:	ffff87b7          	lui	a5,0xffff8
    5370:	00d72023          	sw	a3,0(a4)
    5374:	00b72623          	sw	a1,12(a4)
    5378:	00072423          	sw	zero,8(a4)
    537c:	00068613          	mv	a2,a3
    5380:	fff7c793          	not	a5,a5
    5384:	fff00693          	li	a3,-1
    5388:	00d89223          	sh	a3,4(a7)
    538c:	00f89323          	sh	a5,6(a7)
    5390:	00030593          	mv	a1,t1
    5394:	00080693          	mv	a3,a6
    5398:	06050e63          	beqz	a0,5414 <core_list_init+0xfc>
    539c:	010f1393          	slli	t2,t5,0x10
    53a0:	ffff82b7          	lui	t0,0xffff8
    53a4:	00868e13          	addi	t3,a3,8
    53a8:	0103d393          	srli	t2,t2,0x10
    53ac:	00000813          	li	a6,0
    53b0:	fff2c293          	not	t0,t0
    53b4:	071e7063          	bgeu	t3,a7,5414 <core_list_init+0xfc>
    53b8:	00458e93          	addi	t4,a1,4
    53bc:	21fef463          	bgeu	t4,t6,55c4 <core_list_init+0x2ac>
    53c0:	01081313          	slli	t1,a6,0x10
    53c4:	01035313          	srli	t1,t1,0x10
    53c8:	007347b3          	xor	a5,t1,t2
    53cc:	00379793          	slli	a5,a5,0x3
    53d0:	0787f793          	andi	a5,a5,120
    53d4:	00737313          	andi	t1,t1,7
    53d8:	00c6a023          	sw	a2,0(a3)
    53dc:	0067e7b3          	or	a5,a5,t1
    53e0:	00d72023          	sw	a3,0(a4)
    53e4:	00879613          	slli	a2,a5,0x8
    53e8:	00b6a223          	sw	a1,4(a3)
    53ec:	00c787b3          	add	a5,a5,a2
    53f0:	00f59023          	sh	a5,0(a1)
    53f4:	00559123          	sh	t0,2(a1)
    53f8:	00180813          	addi	a6,a6,1
    53fc:	1b050c63          	beq	a0,a6,55b4 <core_list_init+0x29c>
    5400:	00068613          	mv	a2,a3
    5404:	000e0693          	mv	a3,t3
    5408:	00868e13          	addi	t3,a3,8
    540c:	000e8593          	mv	a1,t4
    5410:	fb1e64e3          	bltu	t3,a7,53b8 <core_list_init+0xa0>
    5414:	00062583          	lw	a1,0(a2)
    5418:	06058c63          	beqz	a1,5490 <core_list_init+0x178>
    541c:	00500793          	li	a5,5
    5420:	00004337          	lui	t1,0x4
    5424:	02f55533          	divu	a0,a0,a5
    5428:	00100693          	li	a3,1
    542c:	20000793          	li	a5,512
    5430:	fff30313          	addi	t1,t1,-1 # 3fff <_entry+0x3fff>
    5434:	0280006f          	j	545c <core_list_init+0x144>
    5438:	0005a803          	lw	a6,0(a1)
    543c:	10078793          	addi	a5,a5,256 # ffff8100 <start_time_val+0xfffeeae4>
    5440:	00d89123          	sh	a3,2(a7)
    5444:	01079793          	slli	a5,a5,0x10
    5448:	00168693          	addi	a3,a3,1
    544c:	0107d793          	srli	a5,a5,0x10
    5450:	04080063          	beqz	a6,5490 <core_list_init+0x178>
    5454:	00058613          	mv	a2,a1
    5458:	00080593          	mv	a1,a6
    545c:	00462883          	lw	a7,4(a2)
    5460:	fca6ece3          	bltu	a3,a0,5438 <core_list_init+0x120>
    5464:	00df4833          	xor	a6,t5,a3
    5468:	7007f613          	andi	a2,a5,1792
    546c:	01066633          	or	a2,a2,a6
    5470:	0005a803          	lw	a6,0(a1)
    5474:	00667633          	and	a2,a2,t1
    5478:	10078793          	addi	a5,a5,256
    547c:	01079793          	slli	a5,a5,0x10
    5480:	00c89123          	sh	a2,2(a7)
    5484:	00168693          	addi	a3,a3,1
    5488:	0107d793          	srli	a5,a5,0x10
    548c:	fc0814e3          	bnez	a6,5454 <core_list_init+0x13c>
    5490:	00100f93          	li	t6,1
    5494:	00000813          	li	a6,0
    5498:	00000513          	li	a0,0
    549c:	00000293          	li	t0,0
    54a0:	00100393          	li	t2,1
    54a4:	00128293          	addi	t0,t0,1 # ffff8001 <start_time_val+0xfffee9e5>
    54a8:	00070793          	mv	a5,a4
    54ac:	00000693          	li	a3,0
    54b0:	01f6d863          	bge	a3,t6,54c0 <core_list_init+0x1a8>
    54b4:	0007a783          	lw	a5,0(a5)
    54b8:	00168693          	addi	a3,a3,1
    54bc:	fe079ae3          	bnez	a5,54b0 <core_list_init+0x198>
    54c0:	000f8593          	mv	a1,t6
    54c4:	02d05263          	blez	a3,54e8 <core_list_init+0x1d0>
    54c8:	04059463          	bnez	a1,5510 <core_list_init+0x1f8>
    54cc:	00072603          	lw	a2,0(a4)
    54d0:	fff68693          	addi	a3,a3,-1
    54d4:	02080a63          	beqz	a6,5508 <core_list_init+0x1f0>
    54d8:	00e82023          	sw	a4,0(a6)
    54dc:	00070813          	mv	a6,a4
    54e0:	00060713          	mv	a4,a2
    54e4:	fed042e3          	bgtz	a3,54c8 <core_list_init+0x1b0>
    54e8:	08b05663          	blez	a1,5574 <core_list_init+0x25c>
    54ec:	08078a63          	beqz	a5,5580 <core_list_init+0x268>
    54f0:	02069263          	bnez	a3,5514 <core_list_init+0x1fc>
    54f4:	00070613          	mv	a2,a4
    54f8:	fff58593          	addi	a1,a1,-1
    54fc:	00078713          	mv	a4,a5
    5500:	0007a783          	lw	a5,0(a5)
    5504:	fc081ae3          	bnez	a6,54d8 <core_list_init+0x1c0>
    5508:	00070513          	mv	a0,a4
    550c:	fd1ff06f          	j	54dc <core_list_init+0x1c4>
    5510:	fa078ee3          	beqz	a5,54cc <core_list_init+0x1b4>
    5514:	00472303          	lw	t1,4(a4)
    5518:	0047a883          	lw	a7,4(a5)
    551c:	00031603          	lh	a2,0(t1)
    5520:	00289e83          	lh	t4,2(a7)
    5524:	00231f03          	lh	t5,2(t1)
    5528:	01061e13          	slli	t3,a2,0x10
    552c:	010e5e13          	srli	t3,t3,0x10
    5530:	f0067613          	andi	a2,a2,-256
    5534:	008e5e13          	srli	t3,t3,0x8
    5538:	01c66633          	or	a2,a2,t3
    553c:	00c31023          	sh	a2,0(t1)
    5540:	00089603          	lh	a2,0(a7)
    5544:	01061313          	slli	t1,a2,0x10
    5548:	01035313          	srli	t1,t1,0x10
    554c:	f0067613          	andi	a2,a2,-256
    5550:	00835313          	srli	t1,t1,0x8
    5554:	00666633          	or	a2,a2,t1
    5558:	00c89023          	sh	a2,0(a7)
    555c:	f7eed8e3          	bge	t4,t5,54cc <core_list_init+0x1b4>
    5560:	00070613          	mv	a2,a4
    5564:	fff58593          	addi	a1,a1,-1
    5568:	00078713          	mv	a4,a5
    556c:	0007a783          	lw	a5,0(a5)
    5570:	f65ff06f          	j	54d4 <core_list_init+0x1bc>
    5574:	00078663          	beqz	a5,5580 <core_list_init+0x268>
    5578:	00078713          	mv	a4,a5
    557c:	f29ff06f          	j	54a4 <core_list_init+0x18c>
    5580:	00082023          	sw	zero,0(a6)
    5584:	02728263          	beq	t0,t2,55a8 <core_list_init+0x290>
    5588:	001f9f93          	slli	t6,t6,0x1
    558c:	02050063          	beqz	a0,55ac <core_list_init+0x294>
    5590:	00050793          	mv	a5,a0
    5594:	00000813          	li	a6,0
    5598:	00000513          	li	a0,0
    559c:	00000293          	li	t0,0
    55a0:	00078713          	mv	a4,a5
    55a4:	f01ff06f          	j	54a4 <core_list_init+0x18c>
    55a8:	00008067          	ret
    55ac:	00002023          	sw	zero,0(zero) # 0 <_entry>
    55b0:	00100073          	ebreak
    55b4:	00068613          	mv	a2,a3
    55b8:	e5dff06f          	j	5414 <core_list_init+0xfc>
    55bc:	00000613          	li	a2,0
    55c0:	dd9ff06f          	j	5398 <core_list_init+0x80>
    55c4:	00180813          	addi	a6,a6,1
    55c8:	e50506e3          	beq	a0,a6,5414 <core_list_init+0xfc>
    55cc:	00068e13          	mv	t3,a3
    55d0:	00058e93          	mv	t4,a1
    55d4:	00060693          	mv	a3,a2
    55d8:	e29ff06f          	j	5400 <core_list_init+0xe8>

000055dc <core_list_insert_new>:
    55dc:	00062803          	lw	a6,0(a2)
    55e0:	00880893          	addi	a7,a6,8
    55e4:	04e8f663          	bgeu	a7,a4,5630 <core_list_insert_new+0x54>
    55e8:	0006a703          	lw	a4,0(a3)
    55ec:	00470313          	addi	t1,a4,4
    55f0:	04f37063          	bgeu	t1,a5,5630 <core_list_insert_new+0x54>
    55f4:	01162023          	sw	a7,0(a2)
    55f8:	00052783          	lw	a5,0(a0)
    55fc:	00059883          	lh	a7,0(a1)
    5600:	00259603          	lh	a2,2(a1)
    5604:	00f82023          	sw	a5,0(a6)
    5608:	01052023          	sw	a6,0(a0)
    560c:	00e82223          	sw	a4,4(a6)
    5610:	0006a783          	lw	a5,0(a3)
    5614:	00080513          	mv	a0,a6
    5618:	00478793          	addi	a5,a5,4
    561c:	00f6a023          	sw	a5,0(a3)
    5620:	00482783          	lw	a5,4(a6)
    5624:	01179023          	sh	a7,0(a5)
    5628:	00c79123          	sh	a2,2(a5)
    562c:	00008067          	ret
    5630:	00000813          	li	a6,0
    5634:	00080513          	mv	a0,a6
    5638:	00008067          	ret

0000563c <core_list_remove>:
    563c:	00050793          	mv	a5,a0
    5640:	00052503          	lw	a0,0(a0)
    5644:	0047a683          	lw	a3,4(a5)
    5648:	00452603          	lw	a2,4(a0)
    564c:	00052703          	lw	a4,0(a0)
    5650:	00c7a223          	sw	a2,4(a5)
    5654:	00d52223          	sw	a3,4(a0)
    5658:	00e7a023          	sw	a4,0(a5)
    565c:	00052023          	sw	zero,0(a0)
    5660:	00008067          	ret

00005664 <core_list_undo_remove>:
    5664:	0045a603          	lw	a2,4(a1)
    5668:	00452683          	lw	a3,4(a0)
    566c:	0005a703          	lw	a4,0(a1)
    5670:	00c52223          	sw	a2,4(a0)
    5674:	00d5a223          	sw	a3,4(a1)
    5678:	00e52023          	sw	a4,0(a0)
    567c:	00a5a023          	sw	a0,0(a1)
    5680:	00008067          	ret

00005684 <core_list_find>:
    5684:	00259703          	lh	a4,2(a1)
    5688:	02074263          	bltz	a4,56ac <core_list_find+0x28>
    568c:	00051863          	bnez	a0,569c <core_list_find+0x18>
    5690:	00008067          	ret
    5694:	00052503          	lw	a0,0(a0)
    5698:	02050c63          	beqz	a0,56d0 <core_list_find+0x4c>
    569c:	00452783          	lw	a5,4(a0)
    56a0:	00279783          	lh	a5,2(a5)
    56a4:	fee798e3          	bne	a5,a4,5694 <core_list_find+0x10>
    56a8:	00008067          	ret
    56ac:	02050263          	beqz	a0,56d0 <core_list_find+0x4c>
    56b0:	00059703          	lh	a4,0(a1)
    56b4:	00c0006f          	j	56c0 <core_list_find+0x3c>
    56b8:	00052503          	lw	a0,0(a0)
    56bc:	00050c63          	beqz	a0,56d4 <core_list_find+0x50>
    56c0:	00452783          	lw	a5,4(a0)
    56c4:	0007c783          	lbu	a5,0(a5)
    56c8:	fee798e3          	bne	a5,a4,56b8 <core_list_find+0x34>
    56cc:	00008067          	ret
    56d0:	00000513          	li	a0,0
    56d4:	00008067          	ret

000056d8 <core_list_reverse>:
    56d8:	02050063          	beqz	a0,56f8 <core_list_reverse+0x20>
    56dc:	00000713          	li	a4,0
    56e0:	0080006f          	j	56e8 <core_list_reverse+0x10>
    56e4:	00078513          	mv	a0,a5
    56e8:	00052783          	lw	a5,0(a0)
    56ec:	00e52023          	sw	a4,0(a0)
    56f0:	00050713          	mv	a4,a0
    56f4:	fe0798e3          	bnez	a5,56e4 <core_list_reverse+0xc>
    56f8:	00008067          	ret

000056fc <core_list_mergesort>:
    56fc:	fd010113          	addi	sp,sp,-48
    5700:	01312e23          	sw	s3,28(sp)
    5704:	01512a23          	sw	s5,20(sp)
    5708:	01712623          	sw	s7,12(sp)
    570c:	01812423          	sw	s8,8(sp)
    5710:	01a12023          	sw	s10,0(sp)
    5714:	02112623          	sw	ra,44(sp)
    5718:	02812423          	sw	s0,40(sp)
    571c:	02912223          	sw	s1,36(sp)
    5720:	03212023          	sw	s2,32(sp)
    5724:	01412c23          	sw	s4,24(sp)
    5728:	01612823          	sw	s6,16(sp)
    572c:	01912223          	sw	s9,4(sp)
    5730:	00050993          	mv	s3,a0
    5734:	00058c13          	mv	s8,a1
    5738:	00060b93          	mv	s7,a2
    573c:	00100a93          	li	s5,1
    5740:	00100d13          	li	s10,1
    5744:	0c098263          	beqz	s3,5808 <core_list_mergesort+0x10c>
    5748:	00000c93          	li	s9,0
    574c:	00000493          	li	s1,0
    5750:	00000b13          	li	s6,0
    5754:	001c8c93          	addi	s9,s9,1
    5758:	00098793          	mv	a5,s3
    575c:	00000413          	li	s0,0
    5760:	01545863          	bge	s0,s5,5770 <core_list_mergesort+0x74>
    5764:	0007a783          	lw	a5,0(a5)
    5768:	00140413          	addi	s0,s0,1
    576c:	fe079ae3          	bnez	a5,5760 <core_list_mergesort+0x64>
    5770:	00098913          	mv	s2,s3
    5774:	000a8a13          	mv	s4,s5
    5778:	00078993          	mv	s3,a5
    577c:	02805263          	blez	s0,57a0 <core_list_mergesort+0xa4>
    5780:	040a1463          	bnez	s4,57c8 <core_list_mergesort+0xcc>
    5784:	00090793          	mv	a5,s2
    5788:	00092903          	lw	s2,0(s2)
    578c:	fff40413          	addi	s0,s0,-1
    5790:	02048663          	beqz	s1,57bc <core_list_mergesort+0xc0>
    5794:	00f4a023          	sw	a5,0(s1)
    5798:	00078493          	mv	s1,a5
    579c:	fe8042e3          	bgtz	s0,5780 <core_list_mergesort+0x84>
    57a0:	05405863          	blez	s4,57f0 <core_list_mergesort+0xf4>
    57a4:	04098863          	beqz	s3,57f4 <core_list_mergesort+0xf8>
    57a8:	02041263          	bnez	s0,57cc <core_list_mergesort+0xd0>
    57ac:	00098793          	mv	a5,s3
    57b0:	fffa0a13          	addi	s4,s4,-1
    57b4:	0009a983          	lw	s3,0(s3)
    57b8:	fc049ee3          	bnez	s1,5794 <core_list_mergesort+0x98>
    57bc:	00078b13          	mv	s6,a5
    57c0:	00078493          	mv	s1,a5
    57c4:	fd9ff06f          	j	579c <core_list_mergesort+0xa0>
    57c8:	fa098ee3          	beqz	s3,5784 <core_list_mergesort+0x88>
    57cc:	0049a583          	lw	a1,4(s3)
    57d0:	00492503          	lw	a0,4(s2)
    57d4:	000b8613          	mv	a2,s7
    57d8:	000c00e7          	jalr	s8
    57dc:	faa054e3          	blez	a0,5784 <core_list_mergesort+0x88>
    57e0:	00098793          	mv	a5,s3
    57e4:	fffa0a13          	addi	s4,s4,-1
    57e8:	0009a983          	lw	s3,0(s3)
    57ec:	fa5ff06f          	j	5790 <core_list_mergesort+0x94>
    57f0:	f60992e3          	bnez	s3,5754 <core_list_mergesort+0x58>
    57f4:	0004a023          	sw	zero,0(s1)
    57f8:	01ac8c63          	beq	s9,s10,5810 <core_list_mergesort+0x114>
    57fc:	000b0993          	mv	s3,s6
    5800:	001a9a93          	slli	s5,s5,0x1
    5804:	f40992e3          	bnez	s3,5748 <core_list_mergesort+0x4c>
    5808:	00002023          	sw	zero,0(zero) # 0 <_entry>
    580c:	00100073          	ebreak
    5810:	02c12083          	lw	ra,44(sp)
    5814:	02812403          	lw	s0,40(sp)
    5818:	02412483          	lw	s1,36(sp)
    581c:	02012903          	lw	s2,32(sp)
    5820:	01c12983          	lw	s3,28(sp)
    5824:	01812a03          	lw	s4,24(sp)
    5828:	01412a83          	lw	s5,20(sp)
    582c:	00c12b83          	lw	s7,12(sp)
    5830:	00812c03          	lw	s8,8(sp)
    5834:	00412c83          	lw	s9,4(sp)
    5838:	00012d03          	lw	s10,0(sp)
    583c:	000b0513          	mv	a0,s6
    5840:	01012b03          	lw	s6,16(sp)
    5844:	03010113          	addi	sp,sp,48
    5848:	00008067          	ret

0000584c <iterate>:
    584c:	ff010113          	addi	sp,sp,-16
    5850:	01212023          	sw	s2,0(sp)
    5854:	01c52903          	lw	s2,28(a0)
    5858:	00112623          	sw	ra,12(sp)
    585c:	02052c23          	sw	zero,56(a0)
    5860:	02052e23          	sw	zero,60(a0)
    5864:	04090c63          	beqz	s2,58bc <iterate+0x70>
    5868:	00812423          	sw	s0,8(sp)
    586c:	00912223          	sw	s1,4(sp)
    5870:	00050413          	mv	s0,a0
    5874:	00000493          	li	s1,0
    5878:	00100593          	li	a1,1
    587c:	00040513          	mv	a0,s0
    5880:	dfcff0ef          	jal	4e7c <core_bench_list>
    5884:	03845583          	lhu	a1,56(s0)
    5888:	304010ef          	jal	6b8c <crcu16>
    588c:	02a41c23          	sh	a0,56(s0)
    5890:	fff00593          	li	a1,-1
    5894:	00040513          	mv	a0,s0
    5898:	de4ff0ef          	jal	4e7c <core_bench_list>
    589c:	03845583          	lhu	a1,56(s0)
    58a0:	2ec010ef          	jal	6b8c <crcu16>
    58a4:	02a41c23          	sh	a0,56(s0)
    58a8:	02048463          	beqz	s1,58d0 <iterate+0x84>
    58ac:	00148493          	addi	s1,s1,1
    58b0:	fc9914e3          	bne	s2,s1,5878 <iterate+0x2c>
    58b4:	00812403          	lw	s0,8(sp)
    58b8:	00412483          	lw	s1,4(sp)
    58bc:	00c12083          	lw	ra,12(sp)
    58c0:	00012903          	lw	s2,0(sp)
    58c4:	00000513          	li	a0,0
    58c8:	01010113          	addi	sp,sp,16
    58cc:	00008067          	ret
    58d0:	02a41d23          	sh	a0,58(s0)
    58d4:	00100793          	li	a5,1
    58d8:	fcf90ee3          	beq	s2,a5,58b4 <iterate+0x68>
    58dc:	00100493          	li	s1,1
    58e0:	f99ff06f          	j	5878 <iterate+0x2c>

000058e4 <matrix_test>:
    58e4:	fd010113          	addi	sp,sp,-48
    58e8:	02112623          	sw	ra,44(sp)
    58ec:	4a050463          	beqz	a0,5d94 <matrix_test+0x4b0>
    58f0:	02912223          	sw	s1,36(sp)
    58f4:	00151493          	slli	s1,a0,0x1
    58f8:	01312e23          	sw	s3,28(sp)
    58fc:	01412c23          	sw	s4,24(sp)
    5900:	01712623          	sw	s7,12(sp)
    5904:	40a00a33          	neg	s4,a0
    5908:	00060b93          	mv	s7,a2
    590c:	01071993          	slli	s3,a4,0x10
    5910:	00960633          	add	a2,a2,s1
    5914:	03212023          	sw	s2,32(sp)
    5918:	01512a23          	sw	s5,20(sp)
    591c:	01612823          	sw	s6,16(sp)
    5920:	02812423          	sw	s0,40(sp)
    5924:	00068b13          	mv	s6,a3
    5928:	01812423          	sw	s8,8(sp)
    592c:	00050893          	mv	a7,a0
    5930:	00058a93          	mv	s5,a1
    5934:	00070913          	mv	s2,a4
    5938:	0109d993          	srli	s3,s3,0x10
    593c:	00060693          	mv	a3,a2
    5940:	00000813          	li	a6,0
    5944:	002a1a13          	slli	s4,s4,0x2
    5948:	409685b3          	sub	a1,a3,s1
    594c:	00058793          	mv	a5,a1
    5950:	0007d703          	lhu	a4,0(a5)
    5954:	00278793          	addi	a5,a5,2
    5958:	00e98733          	add	a4,s3,a4
    595c:	fee79f23          	sh	a4,-2(a5)
    5960:	fed798e3          	bne	a5,a3,5950 <matrix_test+0x6c>
    5964:	00180413          	addi	s0,a6,1
    5968:	414586b3          	sub	a3,a1,s4
    596c:	00888663          	beq	a7,s0,5978 <matrix_test+0x94>
    5970:	00040813          	mv	a6,s0
    5974:	fd5ff06f          	j	5948 <matrix_test+0x64>
    5978:	00000593          	li	a1,0
    597c:	00000893          	li	a7,0
    5980:	40960533          	sub	a0,a2,s1
    5984:	00259693          	slli	a3,a1,0x2
    5988:	015686b3          	add	a3,a3,s5
    598c:	00050793          	mv	a5,a0
    5990:	00079703          	lh	a4,0(a5)
    5994:	00468693          	addi	a3,a3,4
    5998:	00278793          	addi	a5,a5,2
    599c:	03270733          	mul	a4,a4,s2
    59a0:	fee6ae23          	sw	a4,-4(a3)
    59a4:	fef616e3          	bne	a2,a5,5990 <matrix_test+0xac>
    59a8:	00188793          	addi	a5,a7,1
    59ac:	008585b3          	add	a1,a1,s0
    59b0:	41450633          	sub	a2,a0,s4
    59b4:	01088663          	beq	a7,a6,59c0 <matrix_test+0xdc>
    59b8:	00078893          	mv	a7,a5
    59bc:	fc5ff06f          	j	5980 <matrix_test+0x9c>
    59c0:	414a8c33          	sub	s8,s5,s4
    59c4:	40800eb3          	neg	t4,s0
    59c8:	fffff7b7          	lui	a5,0xfffff
    59cc:	00f96933          	or	s2,s2,a5
    59d0:	000c0893          	mv	a7,s8
    59d4:	00000513          	li	a0,0
    59d8:	00000713          	li	a4,0
    59dc:	00000613          	li	a2,0
    59e0:	00000e13          	li	t3,0
    59e4:	003e9e93          	slli	t4,t4,0x3
    59e8:	01488333          	add	t1,a7,s4
    59ec:	00030793          	mv	a5,t1
    59f0:	0140006f          	j	5a04 <matrix_test+0x120>
    59f4:	01051513          	slli	a0,a0,0x10
    59f8:	00478793          	addi	a5,a5,4 # fffff004 <start_time_val+0xffff59e8>
    59fc:	41055513          	srai	a0,a0,0x10
    5a00:	02f88e63          	beq	a7,a5,5a3c <matrix_test+0x158>
    5a04:	00070693          	mv	a3,a4
    5a08:	0007a703          	lw	a4,0(a5)
    5a0c:	01051513          	slli	a0,a0,0x10
    5a10:	01055513          	srli	a0,a0,0x10
    5a14:	00e6a6b3          	slt	a3,a3,a4
    5a18:	00e60633          	add	a2,a2,a4
    5a1c:	00a50593          	addi	a1,a0,10
    5a20:	00d50533          	add	a0,a0,a3
    5a24:	fcc958e3          	bge	s2,a2,59f4 <matrix_test+0x110>
    5a28:	01059513          	slli	a0,a1,0x10
    5a2c:	00478793          	addi	a5,a5,4
    5a30:	41055513          	srai	a0,a0,0x10
    5a34:	00000613          	li	a2,0
    5a38:	fcf896e3          	bne	a7,a5,5a04 <matrix_test+0x120>
    5a3c:	001e0793          	addi	a5,t3,1
    5a40:	41d308b3          	sub	a7,t1,t4
    5a44:	01c80663          	beq	a6,t3,5a50 <matrix_test+0x16c>
    5a48:	00078e13          	mv	t3,a5
    5a4c:	f9dff06f          	j	59e8 <matrix_test+0x104>
    5a50:	00000593          	li	a1,0
    5a54:	01d010ef          	jal	7270 <crc16>
    5a58:	00050593          	mv	a1,a0
    5a5c:	009b0833          	add	a6,s6,s1
    5a60:	000a8893          	mv	a7,s5
    5a64:	00000313          	li	t1,0
    5a68:	00131693          	slli	a3,t1,0x1
    5a6c:	00db86b3          	add	a3,s7,a3
    5a70:	000b0793          	mv	a5,s6
    5a74:	00000613          	li	a2,0
    5a78:	00069703          	lh	a4,0(a3)
    5a7c:	00079503          	lh	a0,0(a5)
    5a80:	00278793          	addi	a5,a5,2
    5a84:	00268693          	addi	a3,a3,2
    5a88:	02a70733          	mul	a4,a4,a0
    5a8c:	00e60633          	add	a2,a2,a4
    5a90:	ff0794e3          	bne	a5,a6,5a78 <matrix_test+0x194>
    5a94:	00c8a023          	sw	a2,0(a7)
    5a98:	00488893          	addi	a7,a7,4
    5a9c:	00830333          	add	t1,t1,s0
    5aa0:	fd8894e3          	bne	a7,s8,5a68 <matrix_test+0x184>
    5aa4:	00000313          	li	t1,0
    5aa8:	00000513          	li	a0,0
    5aac:	00000793          	li	a5,0
    5ab0:	00000693          	li	a3,0
    5ab4:	00000e13          	li	t3,0
    5ab8:	00231613          	slli	a2,t1,0x2
    5abc:	00ca8633          	add	a2,s5,a2
    5ac0:	00000813          	li	a6,0
    5ac4:	0180006f          	j	5adc <matrix_test+0x1f8>
    5ac8:	01051513          	slli	a0,a0,0x10
    5acc:	00180813          	addi	a6,a6,1
    5ad0:	41055513          	srai	a0,a0,0x10
    5ad4:	00460613          	addi	a2,a2,4
    5ad8:	04887063          	bgeu	a6,s0,5b18 <matrix_test+0x234>
    5adc:	00078713          	mv	a4,a5
    5ae0:	00062783          	lw	a5,0(a2)
    5ae4:	01051513          	slli	a0,a0,0x10
    5ae8:	01055513          	srli	a0,a0,0x10
    5aec:	00f72733          	slt	a4,a4,a5
    5af0:	00f686b3          	add	a3,a3,a5
    5af4:	00a50893          	addi	a7,a0,10
    5af8:	00e50533          	add	a0,a0,a4
    5afc:	fcd956e3          	bge	s2,a3,5ac8 <matrix_test+0x1e4>
    5b00:	01089513          	slli	a0,a7,0x10
    5b04:	00180813          	addi	a6,a6,1
    5b08:	41055513          	srai	a0,a0,0x10
    5b0c:	00000693          	li	a3,0
    5b10:	00460613          	addi	a2,a2,4
    5b14:	fc8864e3          	bltu	a6,s0,5adc <matrix_test+0x1f8>
    5b18:	001e0e13          	addi	t3,t3,1
    5b1c:	00830333          	add	t1,t1,s0
    5b20:	f88e6ce3          	bltu	t3,s0,5ab8 <matrix_test+0x1d4>
    5b24:	74c010ef          	jal	7270 <crc16>
    5b28:	00050593          	mv	a1,a0
    5b2c:	000a8f13          	mv	t5,s5
    5b30:	000b8e93          	mv	t4,s7
    5b34:	00000f93          	li	t6,0
    5b38:	000b0893          	mv	a7,s6
    5b3c:	000f0e13          	mv	t3,t5
    5b40:	00000313          	li	t1,0
    5b44:	00088613          	mv	a2,a7
    5b48:	000e8693          	mv	a3,t4
    5b4c:	00000513          	li	a0,0
    5b50:	00000713          	li	a4,0
    5b54:	00069783          	lh	a5,0(a3)
    5b58:	00061803          	lh	a6,0(a2)
    5b5c:	00170713          	addi	a4,a4,1
    5b60:	00268693          	addi	a3,a3,2
    5b64:	030787b3          	mul	a5,a5,a6
    5b68:	00960633          	add	a2,a2,s1
    5b6c:	00f50533          	add	a0,a0,a5
    5b70:	fe8762e3          	bltu	a4,s0,5b54 <matrix_test+0x270>
    5b74:	00ae2023          	sw	a0,0(t3)
    5b78:	00130313          	addi	t1,t1,1
    5b7c:	004e0e13          	addi	t3,t3,4
    5b80:	00288893          	addi	a7,a7,2
    5b84:	fc8360e3          	bltu	t1,s0,5b44 <matrix_test+0x260>
    5b88:	001f8f93          	addi	t6,t6,1
    5b8c:	009e8eb3          	add	t4,t4,s1
    5b90:	414f0f33          	sub	t5,t5,s4
    5b94:	fa8fe2e3          	bltu	t6,s0,5b38 <matrix_test+0x254>
    5b98:	00000313          	li	t1,0
    5b9c:	00000513          	li	a0,0
    5ba0:	00000793          	li	a5,0
    5ba4:	00000693          	li	a3,0
    5ba8:	00000e13          	li	t3,0
    5bac:	00231613          	slli	a2,t1,0x2
    5bb0:	00ca8633          	add	a2,s5,a2
    5bb4:	00000813          	li	a6,0
    5bb8:	0180006f          	j	5bd0 <matrix_test+0x2ec>
    5bbc:	01051513          	slli	a0,a0,0x10
    5bc0:	00180813          	addi	a6,a6,1
    5bc4:	41055513          	srai	a0,a0,0x10
    5bc8:	00460613          	addi	a2,a2,4
    5bcc:	04887063          	bgeu	a6,s0,5c0c <matrix_test+0x328>
    5bd0:	00078713          	mv	a4,a5
    5bd4:	00062783          	lw	a5,0(a2)
    5bd8:	01051513          	slli	a0,a0,0x10
    5bdc:	01055513          	srli	a0,a0,0x10
    5be0:	00f72733          	slt	a4,a4,a5
    5be4:	00f686b3          	add	a3,a3,a5
    5be8:	00a50893          	addi	a7,a0,10
    5bec:	00e50533          	add	a0,a0,a4
    5bf0:	fcd956e3          	bge	s2,a3,5bbc <matrix_test+0x2d8>
    5bf4:	01089513          	slli	a0,a7,0x10
    5bf8:	00180813          	addi	a6,a6,1
    5bfc:	41055513          	srai	a0,a0,0x10
    5c00:	00000693          	li	a3,0
    5c04:	00460613          	addi	a2,a2,4
    5c08:	fc8864e3          	bltu	a6,s0,5bd0 <matrix_test+0x2ec>
    5c0c:	001e0e13          	addi	t3,t3,1
    5c10:	00830333          	add	t1,t1,s0
    5c14:	f88e6ce3          	bltu	t3,s0,5bac <matrix_test+0x2c8>
    5c18:	658010ef          	jal	7270 <crc16>
    5c1c:	00050593          	mv	a1,a0
    5c20:	000a8f13          	mv	t5,s5
    5c24:	000b8e93          	mv	t4,s7
    5c28:	00000f93          	li	t6,0
    5c2c:	000b0893          	mv	a7,s6
    5c30:	000f0e13          	mv	t3,t5
    5c34:	00000313          	li	t1,0
    5c38:	00088513          	mv	a0,a7
    5c3c:	000e8613          	mv	a2,t4
    5c40:	00000813          	li	a6,0
    5c44:	00000693          	li	a3,0
    5c48:	00051703          	lh	a4,0(a0)
    5c4c:	00061783          	lh	a5,0(a2)
    5c50:	00168693          	addi	a3,a3,1
    5c54:	00260613          	addi	a2,a2,2
    5c58:	02e787b3          	mul	a5,a5,a4
    5c5c:	00950533          	add	a0,a0,s1
    5c60:	4027d713          	srai	a4,a5,0x2
    5c64:	4057d793          	srai	a5,a5,0x5
    5c68:	00f77713          	andi	a4,a4,15
    5c6c:	07f7f793          	andi	a5,a5,127
    5c70:	02f707b3          	mul	a5,a4,a5
    5c74:	00f80833          	add	a6,a6,a5
    5c78:	fc86e8e3          	bltu	a3,s0,5c48 <matrix_test+0x364>
    5c7c:	010e2023          	sw	a6,0(t3)
    5c80:	00130313          	addi	t1,t1,1
    5c84:	004e0e13          	addi	t3,t3,4
    5c88:	00288893          	addi	a7,a7,2
    5c8c:	fa8366e3          	bltu	t1,s0,5c38 <matrix_test+0x354>
    5c90:	001f8f93          	addi	t6,t6,1
    5c94:	009e8eb3          	add	t4,t4,s1
    5c98:	414f0f33          	sub	t5,t5,s4
    5c9c:	f88fe8e3          	bltu	t6,s0,5c2c <matrix_test+0x348>
    5ca0:	00000313          	li	t1,0
    5ca4:	00000513          	li	a0,0
    5ca8:	00000793          	li	a5,0
    5cac:	00000693          	li	a3,0
    5cb0:	00000e13          	li	t3,0
    5cb4:	00231613          	slli	a2,t1,0x2
    5cb8:	00ca8633          	add	a2,s5,a2
    5cbc:	00000813          	li	a6,0
    5cc0:	0180006f          	j	5cd8 <matrix_test+0x3f4>
    5cc4:	01051513          	slli	a0,a0,0x10
    5cc8:	00180813          	addi	a6,a6,1
    5ccc:	41055513          	srai	a0,a0,0x10
    5cd0:	00460613          	addi	a2,a2,4
    5cd4:	04887063          	bgeu	a6,s0,5d14 <matrix_test+0x430>
    5cd8:	00078713          	mv	a4,a5
    5cdc:	00062783          	lw	a5,0(a2)
    5ce0:	01051513          	slli	a0,a0,0x10
    5ce4:	01055513          	srli	a0,a0,0x10
    5ce8:	00f72733          	slt	a4,a4,a5
    5cec:	00f686b3          	add	a3,a3,a5
    5cf0:	00a50893          	addi	a7,a0,10
    5cf4:	00e50533          	add	a0,a0,a4
    5cf8:	fcd956e3          	bge	s2,a3,5cc4 <matrix_test+0x3e0>
    5cfc:	01089513          	slli	a0,a7,0x10
    5d00:	00180813          	addi	a6,a6,1
    5d04:	41055513          	srai	a0,a0,0x10
    5d08:	00000693          	li	a3,0
    5d0c:	00460613          	addi	a2,a2,4
    5d10:	fc8864e3          	bltu	a6,s0,5cd8 <matrix_test+0x3f4>
    5d14:	001e0e13          	addi	t3,t3,1
    5d18:	00830333          	add	t1,t1,s0
    5d1c:	f88e6ce3          	bltu	t3,s0,5cb4 <matrix_test+0x3d0>
    5d20:	550010ef          	jal	7270 <crc16>
    5d24:	00000613          	li	a2,0
    5d28:	00000593          	li	a1,0
    5d2c:	00161793          	slli	a5,a2,0x1
    5d30:	00fb87b3          	add	a5,s7,a5
    5d34:	00000693          	li	a3,0
    5d38:	0007d703          	lhu	a4,0(a5)
    5d3c:	00278793          	addi	a5,a5,2
    5d40:	00168693          	addi	a3,a3,1
    5d44:	41370733          	sub	a4,a4,s3
    5d48:	fee79f23          	sh	a4,-2(a5)
    5d4c:	fe86e6e3          	bltu	a3,s0,5d38 <matrix_test+0x454>
    5d50:	00158593          	addi	a1,a1,1
    5d54:	00860633          	add	a2,a2,s0
    5d58:	fc85eae3          	bltu	a1,s0,5d2c <matrix_test+0x448>
    5d5c:	02812403          	lw	s0,40(sp)
    5d60:	02c12083          	lw	ra,44(sp)
    5d64:	01051513          	slli	a0,a0,0x10
    5d68:	02412483          	lw	s1,36(sp)
    5d6c:	02012903          	lw	s2,32(sp)
    5d70:	01c12983          	lw	s3,28(sp)
    5d74:	01812a03          	lw	s4,24(sp)
    5d78:	01412a83          	lw	s5,20(sp)
    5d7c:	01012b03          	lw	s6,16(sp)
    5d80:	00c12b83          	lw	s7,12(sp)
    5d84:	00812c03          	lw	s8,8(sp)
    5d88:	41055513          	srai	a0,a0,0x10
    5d8c:	03010113          	addi	sp,sp,48
    5d90:	00008067          	ret
    5d94:	00000593          	li	a1,0
    5d98:	4d8010ef          	jal	7270 <crc16>
    5d9c:	00050593          	mv	a1,a0
    5da0:	00000513          	li	a0,0
    5da4:	4cc010ef          	jal	7270 <crc16>
    5da8:	00050593          	mv	a1,a0
    5dac:	00000513          	li	a0,0
    5db0:	4c0010ef          	jal	7270 <crc16>
    5db4:	00050593          	mv	a1,a0
    5db8:	00000513          	li	a0,0
    5dbc:	4b4010ef          	jal	7270 <crc16>
    5dc0:	02c12083          	lw	ra,44(sp)
    5dc4:	01051513          	slli	a0,a0,0x10
    5dc8:	41055513          	srai	a0,a0,0x10
    5dcc:	03010113          	addi	sp,sp,48
    5dd0:	00008067          	ret

00005dd4 <core_bench_matrix>:
    5dd4:	ff010113          	addi	sp,sp,-16
    5dd8:	00812423          	sw	s0,8(sp)
    5ddc:	00852683          	lw	a3,8(a0)
    5de0:	00060413          	mv	s0,a2
    5de4:	00058713          	mv	a4,a1
    5de8:	00452603          	lw	a2,4(a0)
    5dec:	00c52583          	lw	a1,12(a0)
    5df0:	00052503          	lw	a0,0(a0)
    5df4:	00112623          	sw	ra,12(sp)
    5df8:	aedff0ef          	jal	58e4 <matrix_test>
    5dfc:	00040593          	mv	a1,s0
    5e00:	00812403          	lw	s0,8(sp)
    5e04:	00c12083          	lw	ra,12(sp)
    5e08:	01010113          	addi	sp,sp,16
    5e0c:	4640106f          	j	7270 <crc16>

00005e10 <core_init_matrix>:
    5e10:	ff010113          	addi	sp,sp,-16
    5e14:	00912423          	sw	s1,8(sp)
    5e18:	01212223          	sw	s2,4(sp)
    5e1c:	00050813          	mv	a6,a0
    5e20:	00061463          	bnez	a2,5e28 <core_init_matrix+0x18>
    5e24:	00100613          	li	a2,1
    5e28:	00000793          	li	a5,0
    5e2c:	10080663          	beqz	a6,5f38 <core_init_matrix+0x128>
    5e30:	00078513          	mv	a0,a5
    5e34:	00178793          	addi	a5,a5,1
    5e38:	02f78733          	mul	a4,a5,a5
    5e3c:	00371713          	slli	a4,a4,0x3
    5e40:	ff0768e3          	bltu	a4,a6,5e30 <core_init_matrix+0x20>
    5e44:	02a502b3          	mul	t0,a0,a0
    5e48:	fff58593          	addi	a1,a1,-1
    5e4c:	ffc5f793          	andi	a5,a1,-4
    5e50:	00478493          	addi	s1,a5,4
    5e54:	00050913          	mv	s2,a0
    5e58:	00048e13          	mv	t3,s1
    5e5c:	00129293          	slli	t0,t0,0x1
    5e60:	005483b3          	add	t2,s1,t0
    5e64:	0c050663          	beqz	a0,5f30 <core_init_matrix+0x120>
    5e68:	00812623          	sw	s0,12(sp)
    5e6c:	01312023          	sw	s3,0(sp)
    5e70:	00010eb7          	lui	t4,0x10
    5e74:	00150313          	addi	t1,a0,1
    5e78:	00151413          	slli	s0,a0,0x1
    5e7c:	00038f13          	mv	t5,t2
    5e80:	00000f93          	li	t6,0
    5e84:	00100713          	li	a4,1
    5e88:	407e0e33          	sub	t3,t3,t2
    5e8c:	fffe8e93          	addi	t4,t4,-1 # ffff <start_time_val+0x69e3>
    5e90:	00070993          	mv	s3,a4
    5e94:	000f0813          	mv	a6,t5
    5e98:	02e60633          	mul	a2,a2,a4
    5e9c:	01071793          	slli	a5,a4,0x10
    5ea0:	0107d793          	srli	a5,a5,0x10
    5ea4:	010e08b3          	add	a7,t3,a6
    5ea8:	00280813          	addi	a6,a6,2
    5eac:	00170713          	addi	a4,a4,1
    5eb0:	41f65593          	srai	a1,a2,0x1f
    5eb4:	0105d593          	srli	a1,a1,0x10
    5eb8:	00b60633          	add	a2,a2,a1
    5ebc:	01d67633          	and	a2,a2,t4
    5ec0:	40b60633          	sub	a2,a2,a1
    5ec4:	00c785b3          	add	a1,a5,a2
    5ec8:	01059593          	slli	a1,a1,0x10
    5ecc:	0105d593          	srli	a1,a1,0x10
    5ed0:	00f587b3          	add	a5,a1,a5
    5ed4:	feb81f23          	sh	a1,-2(a6)
    5ed8:	0ff7f793          	zext.b	a5,a5
    5edc:	00f89023          	sh	a5,0(a7)
    5ee0:	fa671ce3          	bne	a4,t1,5e98 <core_init_matrix+0x88>
    5ee4:	001f8f93          	addi	t6,t6,1
    5ee8:	01350733          	add	a4,a0,s3
    5eec:	00a30333          	add	t1,t1,a0
    5ef0:	008f0f33          	add	t5,t5,s0
    5ef4:	f9f51ee3          	bne	a0,t6,5e90 <core_init_matrix+0x80>
    5ef8:	00c12403          	lw	s0,12(sp)
    5efc:	00012983          	lw	s3,0(sp)
    5f00:	005387b3          	add	a5,t2,t0
    5f04:	fff78793          	addi	a5,a5,-1
    5f08:	ffc7f793          	andi	a5,a5,-4
    5f0c:	00478793          	addi	a5,a5,4
    5f10:	0096a223          	sw	s1,4(a3)
    5f14:	0126a023          	sw	s2,0(a3)
    5f18:	0076a423          	sw	t2,8(a3)
    5f1c:	00f6a623          	sw	a5,12(a3)
    5f20:	00812483          	lw	s1,8(sp)
    5f24:	00412903          	lw	s2,4(sp)
    5f28:	01010113          	addi	sp,sp,16
    5f2c:	00008067          	ret
    5f30:	00000293          	li	t0,0
    5f34:	fcdff06f          	j	5f00 <core_init_matrix+0xf0>
    5f38:	fff58593          	addi	a1,a1,-1
    5f3c:	ffc5f393          	andi	t2,a1,-4
    5f40:	00438e13          	addi	t3,t2,4
    5f44:	00812623          	sw	s0,12(sp)
    5f48:	01312023          	sw	s3,0(sp)
    5f4c:	000e0493          	mv	s1,t3
    5f50:	00638393          	addi	t2,t2,6
    5f54:	fff00913          	li	s2,-1
    5f58:	00200293          	li	t0,2
    5f5c:	fff00513          	li	a0,-1
    5f60:	f11ff06f          	j	5e70 <core_init_matrix+0x60>

00005f64 <matrix_sum>:
    5f64:	00050e93          	mv	t4,a0
    5f68:	08050463          	beqz	a0,5ff0 <matrix_sum+0x8c>
    5f6c:	00251f93          	slli	t6,a0,0x2
    5f70:	40a00f33          	neg	t5,a0
    5f74:	01f588b3          	add	a7,a1,t6
    5f78:	00000e13          	li	t3,0
    5f7c:	00000513          	li	a0,0
    5f80:	00000713          	li	a4,0
    5f84:	00000593          	li	a1,0
    5f88:	003f1f13          	slli	t5,t5,0x3
    5f8c:	41f88333          	sub	t1,a7,t6
    5f90:	00030793          	mv	a5,t1
    5f94:	0140006f          	j	5fa8 <matrix_sum+0x44>
    5f98:	01051513          	slli	a0,a0,0x10
    5f9c:	00478793          	addi	a5,a5,4
    5fa0:	41055513          	srai	a0,a0,0x10
    5fa4:	02f88e63          	beq	a7,a5,5fe0 <matrix_sum+0x7c>
    5fa8:	00070693          	mv	a3,a4
    5fac:	0007a703          	lw	a4,0(a5)
    5fb0:	01051513          	slli	a0,a0,0x10
    5fb4:	01055513          	srli	a0,a0,0x10
    5fb8:	00e6a6b3          	slt	a3,a3,a4
    5fbc:	00e585b3          	add	a1,a1,a4
    5fc0:	00a50813          	addi	a6,a0,10
    5fc4:	00d50533          	add	a0,a0,a3
    5fc8:	fcb658e3          	bge	a2,a1,5f98 <matrix_sum+0x34>
    5fcc:	01081513          	slli	a0,a6,0x10
    5fd0:	00478793          	addi	a5,a5,4
    5fd4:	41055513          	srai	a0,a0,0x10
    5fd8:	00000593          	li	a1,0
    5fdc:	fcf896e3          	bne	a7,a5,5fa8 <matrix_sum+0x44>
    5fe0:	001e0e13          	addi	t3,t3,1
    5fe4:	41e308b3          	sub	a7,t1,t5
    5fe8:	fbce92e3          	bne	t4,t3,5f8c <matrix_sum+0x28>
    5fec:	00008067          	ret
    5ff0:	00000513          	li	a0,0
    5ff4:	00008067          	ret

00005ff8 <matrix_mul_const>:
    5ff8:	04050a63          	beqz	a0,604c <matrix_mul_const+0x54>
    5ffc:	00151f13          	slli	t5,a0,0x1
    6000:	40a00eb3          	neg	t4,a0
    6004:	01e60833          	add	a6,a2,t5
    6008:	00000313          	li	t1,0
    600c:	00000e13          	li	t3,0
    6010:	002e9e93          	slli	t4,t4,0x2
    6014:	41e808b3          	sub	a7,a6,t5
    6018:	00231613          	slli	a2,t1,0x2
    601c:	00c58633          	add	a2,a1,a2
    6020:	00088793          	mv	a5,a7
    6024:	00079703          	lh	a4,0(a5)
    6028:	00460613          	addi	a2,a2,4
    602c:	00278793          	addi	a5,a5,2
    6030:	02d70733          	mul	a4,a4,a3
    6034:	fee62e23          	sw	a4,-4(a2)
    6038:	fef816e3          	bne	a6,a5,6024 <matrix_mul_const+0x2c>
    603c:	001e0e13          	addi	t3,t3,1
    6040:	00a30333          	add	t1,t1,a0
    6044:	41d88833          	sub	a6,a7,t4
    6048:	fdc516e3          	bne	a0,t3,6014 <matrix_mul_const+0x1c>
    604c:	00008067          	ret

00006050 <matrix_add_const>:
    6050:	04050463          	beqz	a0,6098 <matrix_add_const+0x48>
    6054:	00151313          	slli	t1,a0,0x1
    6058:	40a008b3          	neg	a7,a0
    605c:	01061613          	slli	a2,a2,0x10
    6060:	01065613          	srli	a2,a2,0x10
    6064:	006586b3          	add	a3,a1,t1
    6068:	00000813          	li	a6,0
    606c:	00289893          	slli	a7,a7,0x2
    6070:	406685b3          	sub	a1,a3,t1
    6074:	00058793          	mv	a5,a1
    6078:	0007d703          	lhu	a4,0(a5)
    607c:	00278793          	addi	a5,a5,2
    6080:	00e60733          	add	a4,a2,a4
    6084:	fee79f23          	sh	a4,-2(a5)
    6088:	fef698e3          	bne	a3,a5,6078 <matrix_add_const+0x28>
    608c:	00180813          	addi	a6,a6,1
    6090:	411586b3          	sub	a3,a1,a7
    6094:	fd051ee3          	bne	a0,a6,6070 <matrix_add_const+0x20>
    6098:	00008067          	ret

0000609c <matrix_mul_vect>:
    609c:	04050a63          	beqz	a0,60f0 <matrix_mul_vect+0x54>
    60a0:	00251f13          	slli	t5,a0,0x2
    60a4:	00151e13          	slli	t3,a0,0x1
    60a8:	01e58f33          	add	t5,a1,t5
    60ac:	01c68e33          	add	t3,a3,t3
    60b0:	00000e93          	li	t4,0
    60b4:	001e9813          	slli	a6,t4,0x1
    60b8:	01060833          	add	a6,a2,a6
    60bc:	00068793          	mv	a5,a3
    60c0:	00000893          	li	a7,0
    60c4:	00081703          	lh	a4,0(a6)
    60c8:	00079303          	lh	t1,0(a5)
    60cc:	00278793          	addi	a5,a5,2
    60d0:	00280813          	addi	a6,a6,2
    60d4:	02670733          	mul	a4,a4,t1
    60d8:	00e888b3          	add	a7,a7,a4
    60dc:	fefe14e3          	bne	t3,a5,60c4 <matrix_mul_vect+0x28>
    60e0:	0115a023          	sw	a7,0(a1)
    60e4:	00458593          	addi	a1,a1,4
    60e8:	00ae8eb3          	add	t4,t4,a0
    60ec:	fcbf14e3          	bne	t5,a1,60b4 <matrix_mul_vect+0x18>
    60f0:	00008067          	ret

000060f4 <matrix_mul_matrix>:
    60f4:	0a050463          	beqz	a0,619c <matrix_mul_matrix+0xa8>
    60f8:	ff010113          	addi	sp,sp,-16
    60fc:	00050f13          	mv	t5,a0
    6100:	00151513          	slli	a0,a0,0x1
    6104:	00812623          	sw	s0,12(sp)
    6108:	00058393          	mv	t2,a1
    610c:	00068413          	mv	s0,a3
    6110:	00060e93          	mv	t4,a2
    6114:	00a60833          	add	a6,a2,a0
    6118:	00000f93          	li	t6,0
    611c:	00000293          	li	t0,0
    6120:	002f9893          	slli	a7,t6,0x2
    6124:	011388b3          	add	a7,t2,a7
    6128:	00040313          	mv	t1,s0
    612c:	00000e13          	li	t3,0
    6130:	00030693          	mv	a3,t1
    6134:	000e8793          	mv	a5,t4
    6138:	00000613          	li	a2,0
    613c:	00079703          	lh	a4,0(a5)
    6140:	00069583          	lh	a1,0(a3)
    6144:	00278793          	addi	a5,a5,2
    6148:	00a686b3          	add	a3,a3,a0
    614c:	02b70733          	mul	a4,a4,a1
    6150:	00e60633          	add	a2,a2,a4
    6154:	fef814e3          	bne	a6,a5,613c <matrix_mul_matrix+0x48>
    6158:	00c8a023          	sw	a2,0(a7)
    615c:	001e0793          	addi	a5,t3,1
    6160:	00488893          	addi	a7,a7,4
    6164:	00230313          	addi	t1,t1,2
    6168:	00ff0663          	beq	t5,a5,6174 <matrix_mul_matrix+0x80>
    616c:	00078e13          	mv	t3,a5
    6170:	fc1ff06f          	j	6130 <matrix_mul_matrix+0x3c>
    6174:	00128793          	addi	a5,t0,1
    6178:	00ae8eb3          	add	t4,t4,a0
    617c:	01ef8fb3          	add	t6,t6,t5
    6180:	00a80833          	add	a6,a6,a0
    6184:	01c28663          	beq	t0,t3,6190 <matrix_mul_matrix+0x9c>
    6188:	00078293          	mv	t0,a5
    618c:	f95ff06f          	j	6120 <matrix_mul_matrix+0x2c>
    6190:	00c12403          	lw	s0,12(sp)
    6194:	01010113          	addi	sp,sp,16
    6198:	00008067          	ret
    619c:	00008067          	ret

000061a0 <matrix_mul_matrix_bitextract>:
    61a0:	0a050e63          	beqz	a0,625c <matrix_mul_matrix_bitextract+0xbc>
    61a4:	ff010113          	addi	sp,sp,-16
    61a8:	00050f13          	mv	t5,a0
    61ac:	00151513          	slli	a0,a0,0x1
    61b0:	00812623          	sw	s0,12(sp)
    61b4:	00058393          	mv	t2,a1
    61b8:	00068413          	mv	s0,a3
    61bc:	00060e93          	mv	t4,a2
    61c0:	00a60833          	add	a6,a2,a0
    61c4:	00000f93          	li	t6,0
    61c8:	00000293          	li	t0,0
    61cc:	002f9893          	slli	a7,t6,0x2
    61d0:	011388b3          	add	a7,t2,a7
    61d4:	00040313          	mv	t1,s0
    61d8:	00000e13          	li	t3,0
    61dc:	00030613          	mv	a2,t1
    61e0:	000e8693          	mv	a3,t4
    61e4:	00000593          	li	a1,0
    61e8:	00061703          	lh	a4,0(a2)
    61ec:	00069783          	lh	a5,0(a3)
    61f0:	00268693          	addi	a3,a3,2
    61f4:	00a60633          	add	a2,a2,a0
    61f8:	02e787b3          	mul	a5,a5,a4
    61fc:	4027d713          	srai	a4,a5,0x2
    6200:	4057d793          	srai	a5,a5,0x5
    6204:	00f77713          	andi	a4,a4,15
    6208:	07f7f793          	andi	a5,a5,127
    620c:	02f707b3          	mul	a5,a4,a5
    6210:	00f585b3          	add	a1,a1,a5
    6214:	fcd81ae3          	bne	a6,a3,61e8 <matrix_mul_matrix_bitextract+0x48>
    6218:	00b8a023          	sw	a1,0(a7)
    621c:	001e0793          	addi	a5,t3,1
    6220:	00488893          	addi	a7,a7,4
    6224:	00230313          	addi	t1,t1,2
    6228:	00ff0663          	beq	t5,a5,6234 <matrix_mul_matrix_bitextract+0x94>
    622c:	00078e13          	mv	t3,a5
    6230:	fadff06f          	j	61dc <matrix_mul_matrix_bitextract+0x3c>
    6234:	00128793          	addi	a5,t0,1
    6238:	00ae8eb3          	add	t4,t4,a0
    623c:	01ef8fb3          	add	t6,t6,t5
    6240:	00a80833          	add	a6,a6,a0
    6244:	01c28663          	beq	t0,t3,6250 <matrix_mul_matrix_bitextract+0xb0>
    6248:	00078293          	mv	t0,a5
    624c:	f81ff06f          	j	61cc <matrix_mul_matrix_bitextract+0x2c>
    6250:	00c12403          	lw	s0,12(sp)
    6254:	01010113          	addi	sp,sp,16
    6258:	00008067          	ret
    625c:	00008067          	ret

00006260 <core_init_state>:
    6260:	fff50313          	addi	t1,a0,-1
    6264:	00100793          	li	a5,1
    6268:	2667fc63          	bgeu	a5,t1,64e0 <core_init_state+0x280>
    626c:	00158593          	addi	a1,a1,1
    6270:	01059713          	slli	a4,a1,0x10
    6274:	01075713          	srli	a4,a4,0x10
    6278:	000098b7          	lui	a7,0x9
    627c:	00375793          	srli	a5,a4,0x3
    6280:	00700e13          	li	t3,7
    6284:	00777693          	andi	a3,a4,7
    6288:	00000593          	li	a1,0
    628c:	39888893          	addi	a7,a7,920 # 9398 <intpat>
    6290:	00400e93          	li	t4,4
    6294:	00100f13          	li	t5,1
    6298:	02c00f93          	li	t6,44
    629c:	0037f793          	andi	a5,a5,3
    62a0:	09c68463          	beq	a3,t3,6328 <core_init_state+0xc8>
    62a4:	20dee263          	bltu	t4,a3,64a8 <core_init_state+0x248>
    62a8:	ffd68693          	addi	a3,a3,-3
    62ac:	01069693          	slli	a3,a3,0x10
    62b0:	00279793          	slli	a5,a5,0x2
    62b4:	0106d693          	srli	a3,a3,0x10
    62b8:	00f887b3          	add	a5,a7,a5
    62bc:	16df6c63          	bltu	t5,a3,6434 <core_init_state+0x1d4>
    62c0:	0107a683          	lw	a3,16(a5)
    62c4:	00170713          	addi	a4,a4,1
    62c8:	01071713          	slli	a4,a4,0x10
    62cc:	00958293          	addi	t0,a1,9
    62d0:	01075713          	srli	a4,a4,0x10
    62d4:	0662fa63          	bgeu	t0,t1,6348 <core_init_state+0xe8>
    62d8:	00b607b3          	add	a5,a2,a1
    62dc:	00d7e833          	or	a6,a5,a3
    62e0:	00387813          	andi	a6,a6,3
    62e4:	1e081063          	bnez	a6,64c4 <core_init_state+0x264>
    62e8:	00168813          	addi	a6,a3,1
    62ec:	41078833          	sub	a6,a5,a6
    62f0:	00383813          	sltiu	a6,a6,3
    62f4:	1c081863          	bnez	a6,64c4 <core_init_state+0x264>
    62f8:	0006a803          	lw	a6,0(a3)
    62fc:	00800593          	li	a1,8
    6300:	0107a023          	sw	a6,0(a5)
    6304:	0046a683          	lw	a3,4(a3)
    6308:	00d7a223          	sw	a3,4(a5)
    630c:	00b785b3          	add	a1,a5,a1
    6310:	01f58023          	sb	t6,0(a1)
    6314:	00375793          	srli	a5,a4,0x3
    6318:	00777693          	andi	a3,a4,7
    631c:	00028593          	mv	a1,t0
    6320:	0037f793          	andi	a5,a5,3
    6324:	f9c690e3          	bne	a3,t3,62a4 <core_init_state+0x44>
    6328:	00279793          	slli	a5,a5,0x2
    632c:	00170713          	addi	a4,a4,1
    6330:	00f887b3          	add	a5,a7,a5
    6334:	01071713          	slli	a4,a4,0x10
    6338:	00958293          	addi	t0,a1,9
    633c:	0307a683          	lw	a3,48(a5)
    6340:	01075713          	srli	a4,a4,0x10
    6344:	f862eae3          	bltu	t0,t1,62d8 <core_init_state+0x78>
    6348:	16a5f863          	bgeu	a1,a0,64b8 <core_init_state+0x258>
    634c:	00158693          	addi	a3,a1,1
    6350:	00068e13          	mv	t3,a3
    6354:	40b50733          	sub	a4,a0,a1
    6358:	00d53eb3          	sltu	t4,a0,a3
    635c:	00100893          	li	a7,1
    6360:	14d57e63          	bgeu	a0,a3,64bc <core_init_state+0x25c>
    6364:	fff70713          	addi	a4,a4,-1
    6368:	00b607b3          	add	a5,a2,a1
    636c:	40f00333          	neg	t1,a5
    6370:	00673813          	sltiu	a6,a4,6
    6374:	00337713          	andi	a4,t1,3
    6378:	06081463          	bnez	a6,63e0 <core_init_state+0x180>
    637c:	060e9263          	bnez	t4,63e0 <core_init_state+0x180>
    6380:	14070c63          	beqz	a4,64d8 <core_init_state+0x278>
    6384:	00078023          	sb	zero,0(a5)
    6388:	00237313          	andi	t1,t1,2
    638c:	02030263          	beqz	t1,63b0 <core_init_state+0x150>
    6390:	00d606b3          	add	a3,a2,a3
    6394:	00068023          	sb	zero,0(a3)
    6398:	00300793          	li	a5,3
    639c:	00258e13          	addi	t3,a1,2
    63a0:	00f71863          	bne	a4,a5,63b0 <core_init_state+0x150>
    63a4:	01c60e33          	add	t3,a2,t3
    63a8:	000e0023          	sb	zero,0(t3)
    63ac:	00358e13          	addi	t3,a1,3
    63b0:	40e886b3          	sub	a3,a7,a4
    63b4:	00e587b3          	add	a5,a1,a4
    63b8:	00f607b3          	add	a5,a2,a5
    63bc:	ffc6f813          	andi	a6,a3,-4
    63c0:	01078733          	add	a4,a5,a6
    63c4:	0007a023          	sw	zero,0(a5)
    63c8:	00478793          	addi	a5,a5,4
    63cc:	fef71ce3          	bne	a4,a5,63c4 <core_init_state+0x164>
    63d0:	01c805b3          	add	a1,a6,t3
    63d4:	0ed80263          	beq	a6,a3,64b8 <core_init_state+0x258>
    63d8:	00158693          	addi	a3,a1,1
    63dc:	00b607b3          	add	a5,a2,a1
    63e0:	00078023          	sb	zero,0(a5)
    63e4:	0ca6fa63          	bgeu	a3,a0,64b8 <core_init_state+0x258>
    63e8:	00d606b3          	add	a3,a2,a3
    63ec:	00068023          	sb	zero,0(a3)
    63f0:	00258793          	addi	a5,a1,2
    63f4:	0ca7f263          	bgeu	a5,a0,64b8 <core_init_state+0x258>
    63f8:	00f607b3          	add	a5,a2,a5
    63fc:	00078023          	sb	zero,0(a5)
    6400:	00358793          	addi	a5,a1,3
    6404:	0aa7fa63          	bgeu	a5,a0,64b8 <core_init_state+0x258>
    6408:	00f607b3          	add	a5,a2,a5
    640c:	00078023          	sb	zero,0(a5)
    6410:	00458793          	addi	a5,a1,4
    6414:	0aa7f263          	bgeu	a5,a0,64b8 <core_init_state+0x258>
    6418:	00f607b3          	add	a5,a2,a5
    641c:	00078023          	sb	zero,0(a5)
    6420:	00558593          	addi	a1,a1,5
    6424:	08a5fa63          	bgeu	a1,a0,64b8 <core_init_state+0x258>
    6428:	00b605b3          	add	a1,a2,a1
    642c:	00058023          	sb	zero,0(a1)
    6430:	00008067          	ret
    6434:	00170713          	addi	a4,a4,1
    6438:	01071713          	slli	a4,a4,0x10
    643c:	00558293          	addi	t0,a1,5
    6440:	0007a683          	lw	a3,0(a5)
    6444:	00158813          	addi	a6,a1,1
    6448:	01075713          	srli	a4,a4,0x10
    644c:	ee62fee3          	bgeu	t0,t1,6348 <core_init_state+0xe8>
    6450:	0006c383          	lbu	t2,0(a3)
    6454:	00b607b3          	add	a5,a2,a1
    6458:	00400593          	li	a1,4
    645c:	00778023          	sb	t2,0(a5)
    6460:	0016c383          	lbu	t2,1(a3)
    6464:	01060833          	add	a6,a2,a6
    6468:	00780023          	sb	t2,0(a6)
    646c:	0026c803          	lbu	a6,2(a3)
    6470:	01078123          	sb	a6,2(a5)
    6474:	0036c803          	lbu	a6,3(a3)
    6478:	010781a3          	sb	a6,3(a5)
    647c:	e9d588e3          	beq	a1,t4,630c <core_init_state+0xac>
    6480:	0046c803          	lbu	a6,4(a3)
    6484:	00800593          	li	a1,8
    6488:	01078223          	sb	a6,4(a5)
    648c:	0056c803          	lbu	a6,5(a3)
    6490:	010782a3          	sb	a6,5(a5)
    6494:	0066c803          	lbu	a6,6(a3)
    6498:	01078323          	sb	a6,6(a5)
    649c:	0076c683          	lbu	a3,7(a3)
    64a0:	00d783a3          	sb	a3,7(a5)
    64a4:	e69ff06f          	j	630c <core_init_state+0xac>
    64a8:	00279793          	slli	a5,a5,0x2
    64ac:	00f887b3          	add	a5,a7,a5
    64b0:	0207a683          	lw	a3,32(a5)
    64b4:	e11ff06f          	j	62c4 <core_init_state+0x64>
    64b8:	00008067          	ret
    64bc:	00070893          	mv	a7,a4
    64c0:	ea5ff06f          	j	6364 <core_init_state+0x104>
    64c4:	0006c383          	lbu	t2,0(a3)
    64c8:	00158813          	addi	a6,a1,1
    64cc:	00800593          	li	a1,8
    64d0:	00778023          	sb	t2,0(a5)
    64d4:	f8dff06f          	j	6460 <core_init_state+0x200>
    64d8:	00058e13          	mv	t3,a1
    64dc:	ed5ff06f          	j	63b0 <core_init_state+0x150>
    64e0:	00000593          	li	a1,0
    64e4:	00100693          	li	a3,1
    64e8:	00060793          	mv	a5,a2
    64ec:	ef5ff06f          	j	63e0 <core_init_state+0x180>

000064f0 <core_state_transition>:
    64f0:	00052783          	lw	a5,0(a0)
    64f4:	00050813          	mv	a6,a0
    64f8:	0007c703          	lbu	a4,0(a5)
    64fc:	28070263          	beqz	a4,6780 <core_state_transition+0x290>
    6500:	02c00693          	li	a3,44
    6504:	00000513          	li	a0,0
    6508:	20d70a63          	beq	a4,a3,671c <core_state_transition+0x22c>
    650c:	02e00513          	li	a0,46
    6510:	22a70663          	beq	a4,a0,673c <core_state_transition+0x24c>
    6514:	1ce56a63          	bltu	a0,a4,66e8 <core_state_transition+0x1f8>
    6518:	fd570713          	addi	a4,a4,-43
    651c:	0fd77713          	andi	a4,a4,253
    6520:	02070663          	beqz	a4,654c <core_state_transition+0x5c>
    6524:	0045a683          	lw	a3,4(a1)
    6528:	0005a703          	lw	a4,0(a1)
    652c:	00178793          	addi	a5,a5,1
    6530:	00168693          	addi	a3,a3,1
    6534:	00170713          	addi	a4,a4,1
    6538:	00d5a223          	sw	a3,4(a1)
    653c:	00e5a023          	sw	a4,0(a1)
    6540:	00100513          	li	a0,1
    6544:	00f82023          	sw	a5,0(a6)
    6548:	00008067          	ret
    654c:	0005a703          	lw	a4,0(a1)
    6550:	00178613          	addi	a2,a5,1
    6554:	00170713          	addi	a4,a4,1
    6558:	00e5a023          	sw	a4,0(a1)
    655c:	0017c883          	lbu	a7,1(a5)
    6560:	26088663          	beqz	a7,67cc <core_state_transition+0x2dc>
    6564:	20d88663          	beq	a7,a3,6770 <core_state_transition+0x280>
    6568:	0085a683          	lw	a3,8(a1)
    656c:	fd088713          	addi	a4,a7,-48
    6570:	0ff77713          	zext.b	a4,a4
    6574:	00900313          	li	t1,9
    6578:	00168693          	addi	a3,a3,1
    657c:	00e37e63          	bgeu	t1,a4,6598 <core_state_transition+0xa8>
    6580:	1ea88463          	beq	a7,a0,6768 <core_state_transition+0x278>
    6584:	00d5a423          	sw	a3,8(a1)
    6588:	00278793          	addi	a5,a5,2
    658c:	00100513          	li	a0,1
    6590:	00f82023          	sw	a5,0(a6)
    6594:	00008067          	ret
    6598:	00d5a423          	sw	a3,8(a1)
    659c:	00164783          	lbu	a5,1(a2)
    65a0:	00160613          	addi	a2,a2,1
    65a4:	1e078263          	beqz	a5,6788 <core_state_transition+0x298>
    65a8:	02c00713          	li	a4,44
    65ac:	16e78463          	beq	a5,a4,6714 <core_state_transition+0x224>
    65b0:	02e00713          	li	a4,46
    65b4:	02e78863          	beq	a5,a4,65e4 <core_state_transition+0xf4>
    65b8:	fd078793          	addi	a5,a5,-48
    65bc:	0ff7f793          	zext.b	a5,a5
    65c0:	00900713          	li	a4,9
    65c4:	fcf77ce3          	bgeu	a4,a5,659c <core_state_transition+0xac>
    65c8:	0105a703          	lw	a4,16(a1)
    65cc:	00160793          	addi	a5,a2,1
    65d0:	00100513          	li	a0,1
    65d4:	00170713          	addi	a4,a4,1
    65d8:	00e5a823          	sw	a4,16(a1)
    65dc:	00f82023          	sw	a5,0(a6)
    65e0:	00008067          	ret
    65e4:	0105a783          	lw	a5,16(a1)
    65e8:	00178793          	addi	a5,a5,1
    65ec:	00f5a823          	sw	a5,16(a1)
    65f0:	0140006f          	j	6604 <core_state_transition+0x114>
    65f4:	fd078793          	addi	a5,a5,-48
    65f8:	0ff7f793          	zext.b	a5,a5
    65fc:	00900713          	li	a4,9
    6600:	12f76263          	bltu	a4,a5,6724 <core_state_transition+0x234>
    6604:	00164783          	lbu	a5,1(a2)
    6608:	00160613          	addi	a2,a2,1
    660c:	1a078a63          	beqz	a5,67c0 <core_state_transition+0x2d0>
    6610:	02c00713          	li	a4,44
    6614:	14e78263          	beq	a5,a4,6758 <core_state_transition+0x268>
    6618:	0df7f713          	andi	a4,a5,223
    661c:	04500693          	li	a3,69
    6620:	fcd71ae3          	bne	a4,a3,65f4 <core_state_transition+0x104>
    6624:	0145a703          	lw	a4,20(a1)
    6628:	00160793          	addi	a5,a2,1
    662c:	00300513          	li	a0,3
    6630:	00170713          	addi	a4,a4,1
    6634:	00e5aa23          	sw	a4,20(a1)
    6638:	00164703          	lbu	a4,1(a2)
    663c:	f00704e3          	beqz	a4,6544 <core_state_transition+0x54>
    6640:	02c00693          	li	a3,44
    6644:	14d70863          	beq	a4,a3,6794 <core_state_transition+0x2a4>
    6648:	00c5a783          	lw	a5,12(a1)
    664c:	fd570713          	addi	a4,a4,-43
    6650:	0fd77713          	andi	a4,a4,253
    6654:	00178793          	addi	a5,a5,1
    6658:	00f5a623          	sw	a5,12(a1)
    665c:	00100513          	li	a0,1
    6660:	00260793          	addi	a5,a2,2
    6664:	ee0710e3          	bnez	a4,6544 <core_state_transition+0x54>
    6668:	00264703          	lbu	a4,2(a2)
    666c:	00260793          	addi	a5,a2,2
    6670:	00600513          	li	a0,6
    6674:	ec0708e3          	beqz	a4,6544 <core_state_transition+0x54>
    6678:	12d70463          	beq	a4,a3,67a0 <core_state_transition+0x2b0>
    667c:	0185a683          	lw	a3,24(a1)
    6680:	fd070713          	addi	a4,a4,-48
    6684:	0ff77713          	zext.b	a4,a4
    6688:	00168693          	addi	a3,a3,1
    668c:	00900513          	li	a0,9
    6690:	00d5ac23          	sw	a3,24(a1)
    6694:	00e57a63          	bgeu	a0,a4,66a8 <core_state_transition+0x1b8>
    6698:	00360793          	addi	a5,a2,3
    669c:	00100513          	li	a0,1
    66a0:	00f82023          	sw	a5,0(a6)
    66a4:	00008067          	ret
    66a8:	00900613          	li	a2,9
    66ac:	0017c683          	lbu	a3,1(a5)
    66b0:	00078513          	mv	a0,a5
    66b4:	02c00893          	li	a7,44
    66b8:	fd068713          	addi	a4,a3,-48
    66bc:	00178793          	addi	a5,a5,1
    66c0:	0ff77713          	zext.b	a4,a4
    66c4:	0e068463          	beqz	a3,67ac <core_state_transition+0x2bc>
    66c8:	0f168663          	beq	a3,a7,67b4 <core_state_transition+0x2c4>
    66cc:	fee670e3          	bgeu	a2,a4,66ac <core_state_transition+0x1bc>
    66d0:	0045a703          	lw	a4,4(a1)
    66d4:	00250793          	addi	a5,a0,2
    66d8:	00100513          	li	a0,1
    66dc:	00170713          	addi	a4,a4,1
    66e0:	00e5a223          	sw	a4,4(a1)
    66e4:	e61ff06f          	j	6544 <core_state_transition+0x54>
    66e8:	fd070713          	addi	a4,a4,-48
    66ec:	0ff77713          	zext.b	a4,a4
    66f0:	00900613          	li	a2,9
    66f4:	e2e668e3          	bltu	a2,a4,6524 <core_state_transition+0x34>
    66f8:	0005a703          	lw	a4,0(a1)
    66fc:	00178613          	addi	a2,a5,1
    6700:	00170713          	addi	a4,a4,1
    6704:	00e5a023          	sw	a4,0(a1)
    6708:	0017c783          	lbu	a5,1(a5)
    670c:	06078e63          	beqz	a5,6788 <core_state_transition+0x298>
    6710:	ead790e3          	bne	a5,a3,65b0 <core_state_transition+0xc0>
    6714:	00060793          	mv	a5,a2
    6718:	00400513          	li	a0,4
    671c:	00178793          	addi	a5,a5,1
    6720:	e25ff06f          	j	6544 <core_state_transition+0x54>
    6724:	0145a703          	lw	a4,20(a1)
    6728:	00160793          	addi	a5,a2,1
    672c:	00100513          	li	a0,1
    6730:	00170713          	addi	a4,a4,1
    6734:	00e5aa23          	sw	a4,20(a1)
    6738:	e0dff06f          	j	6544 <core_state_transition+0x54>
    673c:	0005a703          	lw	a4,0(a1)
    6740:	00178613          	addi	a2,a5,1
    6744:	00170713          	addi	a4,a4,1
    6748:	00e5a023          	sw	a4,0(a1)
    674c:	0017c783          	lbu	a5,1(a5)
    6750:	06078863          	beqz	a5,67c0 <core_state_transition+0x2d0>
    6754:	ecd792e3          	bne	a5,a3,6618 <core_state_transition+0x128>
    6758:	00060793          	mv	a5,a2
    675c:	00500513          	li	a0,5
    6760:	00178793          	addi	a5,a5,1
    6764:	de1ff06f          	j	6544 <core_state_transition+0x54>
    6768:	00d5a423          	sw	a3,8(a1)
    676c:	e99ff06f          	j	6604 <core_state_transition+0x114>
    6770:	00060793          	mv	a5,a2
    6774:	00200513          	li	a0,2
    6778:	00178793          	addi	a5,a5,1
    677c:	dc9ff06f          	j	6544 <core_state_transition+0x54>
    6780:	00000513          	li	a0,0
    6784:	dc1ff06f          	j	6544 <core_state_transition+0x54>
    6788:	00060793          	mv	a5,a2
    678c:	00400513          	li	a0,4
    6790:	db5ff06f          	j	6544 <core_state_transition+0x54>
    6794:	00300513          	li	a0,3
    6798:	00178793          	addi	a5,a5,1
    679c:	da9ff06f          	j	6544 <core_state_transition+0x54>
    67a0:	00600513          	li	a0,6
    67a4:	00178793          	addi	a5,a5,1
    67a8:	d9dff06f          	j	6544 <core_state_transition+0x54>
    67ac:	00700513          	li	a0,7
    67b0:	d95ff06f          	j	6544 <core_state_transition+0x54>
    67b4:	00700513          	li	a0,7
    67b8:	00178793          	addi	a5,a5,1
    67bc:	d89ff06f          	j	6544 <core_state_transition+0x54>
    67c0:	00060793          	mv	a5,a2
    67c4:	00500513          	li	a0,5
    67c8:	d7dff06f          	j	6544 <core_state_transition+0x54>
    67cc:	00060793          	mv	a5,a2
    67d0:	00200513          	li	a0,2
    67d4:	d71ff06f          	j	6544 <core_state_transition+0x54>

000067d8 <core_bench_state>:
    67d8:	f8010113          	addi	sp,sp,-128
    67dc:	06812c23          	sw	s0,120(sp)
    67e0:	06912a23          	sw	s1,116(sp)
    67e4:	07212823          	sw	s2,112(sp)
    67e8:	07312623          	sw	s3,108(sp)
    67ec:	07412423          	sw	s4,104(sp)
    67f0:	07512223          	sw	s5,100(sp)
    67f4:	07612023          	sw	s6,96(sp)
    67f8:	05712e23          	sw	s7,92(sp)
    67fc:	06112e23          	sw	ra,124(sp)
    6800:	00058413          	mv	s0,a1
    6804:	0005c583          	lbu	a1,0(a1)
    6808:	00812623          	sw	s0,12(sp)
    680c:	02012823          	sw	zero,48(sp)
    6810:	00012823          	sw	zero,16(sp)
    6814:	02012a23          	sw	zero,52(sp)
    6818:	00012a23          	sw	zero,20(sp)
    681c:	02012c23          	sw	zero,56(sp)
    6820:	00012c23          	sw	zero,24(sp)
    6824:	02012e23          	sw	zero,60(sp)
    6828:	00012e23          	sw	zero,28(sp)
    682c:	04012023          	sw	zero,64(sp)
    6830:	02012023          	sw	zero,32(sp)
    6834:	04012223          	sw	zero,68(sp)
    6838:	02012223          	sw	zero,36(sp)
    683c:	04012423          	sw	zero,72(sp)
    6840:	02012423          	sw	zero,40(sp)
    6844:	04012623          	sw	zero,76(sp)
    6848:	02012623          	sw	zero,44(sp)
    684c:	00050b13          	mv	s6,a0
    6850:	00060b93          	mv	s7,a2
    6854:	00068a13          	mv	s4,a3
    6858:	00070a93          	mv	s5,a4
    685c:	00078493          	mv	s1,a5
    6860:	03010913          	addi	s2,sp,48
    6864:	00c10993          	addi	s3,sp,12
    6868:	18058663          	beqz	a1,69f4 <core_bench_state+0x21c>
    686c:	00090593          	mv	a1,s2
    6870:	00098513          	mv	a0,s3
    6874:	c7dff0ef          	jal	64f0 <core_state_transition>
    6878:	00251813          	slli	a6,a0,0x2
    687c:	05080793          	addi	a5,a6,80
    6880:	00278833          	add	a6,a5,sp
    6884:	00c12703          	lw	a4,12(sp)
    6888:	fc082783          	lw	a5,-64(a6)
    688c:	00074703          	lbu	a4,0(a4)
    6890:	00178793          	addi	a5,a5,1
    6894:	fcf82023          	sw	a5,-64(a6)
    6898:	fc071ae3          	bnez	a4,686c <core_bench_state+0x94>
    689c:	00812623          	sw	s0,12(sp)
    68a0:	01640b33          	add	s6,s0,s6
    68a4:	03647c63          	bgeu	s0,s6,68dc <core_bench_state+0x104>
    68a8:	00100713          	li	a4,1
    68ac:	00040793          	mv	a5,s0
    68b0:	02c00613          	li	a2,44
    68b4:	0eea9263          	bne	s5,a4,6998 <core_bench_state+0x1c0>
    68b8:	0007c703          	lbu	a4,0(a5)
    68bc:	017746b3          	xor	a3,a4,s7
    68c0:	00c70463          	beq	a4,a2,68c8 <core_bench_state+0xf0>
    68c4:	00d78023          	sb	a3,0(a5)
    68c8:	00178793          	addi	a5,a5,1
    68cc:	ff67e6e3          	bltu	a5,s6,68b8 <core_bench_state+0xe0>
    68d0:	00044783          	lbu	a5,0(s0)
    68d4:	00c10993          	addi	s3,sp,12
    68d8:	10078863          	beqz	a5,69e8 <core_bench_state+0x210>
    68dc:	00090593          	mv	a1,s2
    68e0:	00098513          	mv	a0,s3
    68e4:	c0dff0ef          	jal	64f0 <core_state_transition>
    68e8:	00251613          	slli	a2,a0,0x2
    68ec:	05060793          	addi	a5,a2,80
    68f0:	00278633          	add	a2,a5,sp
    68f4:	00c12703          	lw	a4,12(sp)
    68f8:	fc062783          	lw	a5,-64(a2)
    68fc:	00074703          	lbu	a4,0(a4)
    6900:	00178793          	addi	a5,a5,1
    6904:	fcf62023          	sw	a5,-64(a2)
    6908:	fc071ae3          	bnez	a4,68dc <core_bench_state+0x104>
    690c:	00812623          	sw	s0,12(sp)
    6910:	03647663          	bgeu	s0,s6,693c <core_bench_state+0x164>
    6914:	00100793          	li	a5,1
    6918:	0afa9663          	bne	s5,a5,69c4 <core_bench_state+0x1ec>
    691c:	00040713          	mv	a4,s0
    6920:	02c00613          	li	a2,44
    6924:	00074783          	lbu	a5,0(a4)
    6928:	0147c6b3          	xor	a3,a5,s4
    692c:	00c78463          	beq	a5,a2,6934 <core_bench_state+0x15c>
    6930:	00d70023          	sb	a3,0(a4)
    6934:	00170713          	addi	a4,a4,1
    6938:	ff6766e3          	bltu	a4,s6,6924 <core_bench_state+0x14c>
    693c:	01010413          	addi	s0,sp,16
    6940:	00090993          	mv	s3,s2
    6944:	00042503          	lw	a0,0(s0)
    6948:	00048593          	mv	a1,s1
    694c:	00440413          	addi	s0,s0,4
    6950:	488000ef          	jal	6dd8 <crcu32>
    6954:	00050593          	mv	a1,a0
    6958:	0009a503          	lw	a0,0(s3)
    695c:	00498993          	addi	s3,s3,4
    6960:	478000ef          	jal	6dd8 <crcu32>
    6964:	00050493          	mv	s1,a0
    6968:	fd241ee3          	bne	s0,s2,6944 <core_bench_state+0x16c>
    696c:	07c12083          	lw	ra,124(sp)
    6970:	07812403          	lw	s0,120(sp)
    6974:	07412483          	lw	s1,116(sp)
    6978:	07012903          	lw	s2,112(sp)
    697c:	06c12983          	lw	s3,108(sp)
    6980:	06812a03          	lw	s4,104(sp)
    6984:	06412a83          	lw	s5,100(sp)
    6988:	06012b03          	lw	s6,96(sp)
    698c:	05c12b83          	lw	s7,92(sp)
    6990:	08010113          	addi	sp,sp,128
    6994:	00008067          	ret
    6998:	0007c703          	lbu	a4,0(a5)
    699c:	017746b3          	xor	a3,a4,s7
    69a0:	00c70463          	beq	a4,a2,69a8 <core_bench_state+0x1d0>
    69a4:	00d78023          	sb	a3,0(a5)
    69a8:	015787b3          	add	a5,a5,s5
    69ac:	ff67e6e3          	bltu	a5,s6,6998 <core_bench_state+0x1c0>
    69b0:	00044783          	lbu	a5,0(s0)
    69b4:	00c10993          	addi	s3,sp,12
    69b8:	f20792e3          	bnez	a5,68dc <core_bench_state+0x104>
    69bc:	00812623          	sw	s0,12(sp)
    69c0:	f7647ee3          	bgeu	s0,s6,693c <core_bench_state+0x164>
    69c4:	00040713          	mv	a4,s0
    69c8:	02c00613          	li	a2,44
    69cc:	00074783          	lbu	a5,0(a4)
    69d0:	0147c6b3          	xor	a3,a5,s4
    69d4:	00c78463          	beq	a5,a2,69dc <core_bench_state+0x204>
    69d8:	00d70023          	sb	a3,0(a4)
    69dc:	01570733          	add	a4,a4,s5
    69e0:	ff6766e3          	bltu	a4,s6,69cc <core_bench_state+0x1f4>
    69e4:	f59ff06f          	j	693c <core_bench_state+0x164>
    69e8:	00812623          	sw	s0,12(sp)
    69ec:	f36468e3          	bltu	s0,s6,691c <core_bench_state+0x144>
    69f0:	f4dff06f          	j	693c <core_bench_state+0x164>
    69f4:	00a40b33          	add	s6,s0,a0
    69f8:	eb6468e3          	bltu	s0,s6,68a8 <core_bench_state+0xd0>
    69fc:	f41ff06f          	j	693c <core_bench_state+0x164>

00006a00 <get_seed_32>:
    6a00:	00500793          	li	a5,5
    6a04:	04a7ec63          	bltu	a5,a0,6a5c <get_seed_32+0x5c>
    6a08:	000097b7          	lui	a5,0x9
    6a0c:	3d878793          	addi	a5,a5,984 # 93d8 <errpat+0x10>
    6a10:	00251513          	slli	a0,a0,0x2
    6a14:	00f50533          	add	a0,a0,a5
    6a18:	00052783          	lw	a5,0(a0)
    6a1c:	00078067          	jr	a5
    6a20:	000097b7          	lui	a5,0x9
    6a24:	6047a503          	lw	a0,1540(a5) # 9604 <seed5_volatile>
    6a28:	00008067          	ret
    6a2c:	000097b7          	lui	a5,0x9
    6a30:	6147a503          	lw	a0,1556(a5) # 9614 <seed1_volatile>
    6a34:	00008067          	ret
    6a38:	000097b7          	lui	a5,0x9
    6a3c:	6107a503          	lw	a0,1552(a5) # 9610 <seed2_volatile>
    6a40:	00008067          	ret
    6a44:	000097b7          	lui	a5,0x9
    6a48:	60c7a503          	lw	a0,1548(a5) # 960c <seed3_volatile>
    6a4c:	00008067          	ret
    6a50:	000097b7          	lui	a5,0x9
    6a54:	6087a503          	lw	a0,1544(a5) # 9608 <seed4_volatile>
    6a58:	00008067          	ret
    6a5c:	00000513          	li	a0,0
    6a60:	00008067          	ret

00006a64 <crcu8>:
    6a64:	00b547b3          	xor	a5,a0,a1
    6a68:	0017f793          	andi	a5,a5,1
    6a6c:	ffffa6b7          	lui	a3,0xffffa
    6a70:	00168693          	addi	a3,a3,1 # ffffa001 <start_time_val+0xffff09e5>
    6a74:	40f007b3          	neg	a5,a5
    6a78:	00d7f7b3          	and	a5,a5,a3
    6a7c:	0015d593          	srli	a1,a1,0x1
    6a80:	00b7c7b3          	xor	a5,a5,a1
    6a84:	01079793          	slli	a5,a5,0x10
    6a88:	0107d793          	srli	a5,a5,0x10
    6a8c:	00155713          	srli	a4,a0,0x1
    6a90:	00f74733          	xor	a4,a4,a5
    6a94:	00177713          	andi	a4,a4,1
    6a98:	40e00733          	neg	a4,a4
    6a9c:	00d77733          	and	a4,a4,a3
    6aa0:	0017d793          	srli	a5,a5,0x1
    6aa4:	00f74733          	xor	a4,a4,a5
    6aa8:	01071713          	slli	a4,a4,0x10
    6aac:	01075713          	srli	a4,a4,0x10
    6ab0:	00255793          	srli	a5,a0,0x2
    6ab4:	00e7c7b3          	xor	a5,a5,a4
    6ab8:	0017f793          	andi	a5,a5,1
    6abc:	40f007b3          	neg	a5,a5
    6ac0:	00d7f7b3          	and	a5,a5,a3
    6ac4:	00175713          	srli	a4,a4,0x1
    6ac8:	00e7c7b3          	xor	a5,a5,a4
    6acc:	01079793          	slli	a5,a5,0x10
    6ad0:	0107d793          	srli	a5,a5,0x10
    6ad4:	00355713          	srli	a4,a0,0x3
    6ad8:	00f74733          	xor	a4,a4,a5
    6adc:	00177713          	andi	a4,a4,1
    6ae0:	40e00733          	neg	a4,a4
    6ae4:	00d77733          	and	a4,a4,a3
    6ae8:	0017d793          	srli	a5,a5,0x1
    6aec:	00f74733          	xor	a4,a4,a5
    6af0:	01071713          	slli	a4,a4,0x10
    6af4:	01075713          	srli	a4,a4,0x10
    6af8:	00455793          	srli	a5,a0,0x4
    6afc:	00e7c7b3          	xor	a5,a5,a4
    6b00:	0017f793          	andi	a5,a5,1
    6b04:	40f007b3          	neg	a5,a5
    6b08:	00d7f7b3          	and	a5,a5,a3
    6b0c:	00175713          	srli	a4,a4,0x1
    6b10:	00e7c7b3          	xor	a5,a5,a4
    6b14:	01079793          	slli	a5,a5,0x10
    6b18:	0107d793          	srli	a5,a5,0x10
    6b1c:	00555713          	srli	a4,a0,0x5
    6b20:	00f74733          	xor	a4,a4,a5
    6b24:	00177713          	andi	a4,a4,1
    6b28:	40e00733          	neg	a4,a4
    6b2c:	00d77733          	and	a4,a4,a3
    6b30:	0017d793          	srli	a5,a5,0x1
    6b34:	00f74733          	xor	a4,a4,a5
    6b38:	01071713          	slli	a4,a4,0x10
    6b3c:	01075713          	srli	a4,a4,0x10
    6b40:	00655793          	srli	a5,a0,0x6
    6b44:	00e7c7b3          	xor	a5,a5,a4
    6b48:	0017f793          	andi	a5,a5,1
    6b4c:	40f007b3          	neg	a5,a5
    6b50:	00d7f7b3          	and	a5,a5,a3
    6b54:	00175713          	srli	a4,a4,0x1
    6b58:	00e7c7b3          	xor	a5,a5,a4
    6b5c:	01079793          	slli	a5,a5,0x10
    6b60:	0107d793          	srli	a5,a5,0x10
    6b64:	00755513          	srli	a0,a0,0x7
    6b68:	00f54533          	xor	a0,a0,a5
    6b6c:	00157513          	andi	a0,a0,1
    6b70:	40a00533          	neg	a0,a0
    6b74:	00d57533          	and	a0,a0,a3
    6b78:	0017d793          	srli	a5,a5,0x1
    6b7c:	00f54533          	xor	a0,a0,a5
    6b80:	01051513          	slli	a0,a0,0x10
    6b84:	01055513          	srli	a0,a0,0x10
    6b88:	00008067          	ret

00006b8c <crcu16>:
    6b8c:	0ff57793          	zext.b	a5,a0
    6b90:	00b7c6b3          	xor	a3,a5,a1
    6b94:	0016f693          	andi	a3,a3,1
    6b98:	ffffa737          	lui	a4,0xffffa
    6b9c:	00170713          	addi	a4,a4,1 # ffffa001 <start_time_val+0xffff09e5>
    6ba0:	40d006b3          	neg	a3,a3
    6ba4:	00e6f6b3          	and	a3,a3,a4
    6ba8:	0015d593          	srli	a1,a1,0x1
    6bac:	00b6c6b3          	xor	a3,a3,a1
    6bb0:	01069693          	slli	a3,a3,0x10
    6bb4:	0106d693          	srli	a3,a3,0x10
    6bb8:	0017d613          	srli	a2,a5,0x1
    6bbc:	00d64633          	xor	a2,a2,a3
    6bc0:	00167613          	andi	a2,a2,1
    6bc4:	40c00633          	neg	a2,a2
    6bc8:	00e67633          	and	a2,a2,a4
    6bcc:	0016d693          	srli	a3,a3,0x1
    6bd0:	00d64633          	xor	a2,a2,a3
    6bd4:	01061613          	slli	a2,a2,0x10
    6bd8:	01065613          	srli	a2,a2,0x10
    6bdc:	0027d693          	srli	a3,a5,0x2
    6be0:	00c6c6b3          	xor	a3,a3,a2
    6be4:	0016f693          	andi	a3,a3,1
    6be8:	40d006b3          	neg	a3,a3
    6bec:	00e6f6b3          	and	a3,a3,a4
    6bf0:	00165613          	srli	a2,a2,0x1
    6bf4:	00c6c6b3          	xor	a3,a3,a2
    6bf8:	01069693          	slli	a3,a3,0x10
    6bfc:	0106d693          	srli	a3,a3,0x10
    6c00:	0037d613          	srli	a2,a5,0x3
    6c04:	00d64633          	xor	a2,a2,a3
    6c08:	00167613          	andi	a2,a2,1
    6c0c:	40c00633          	neg	a2,a2
    6c10:	00e67633          	and	a2,a2,a4
    6c14:	0016d693          	srli	a3,a3,0x1
    6c18:	00d64633          	xor	a2,a2,a3
    6c1c:	01061613          	slli	a2,a2,0x10
    6c20:	01065613          	srli	a2,a2,0x10
    6c24:	0047d693          	srli	a3,a5,0x4
    6c28:	00c6c6b3          	xor	a3,a3,a2
    6c2c:	0016f693          	andi	a3,a3,1
    6c30:	40d006b3          	neg	a3,a3
    6c34:	00e6f6b3          	and	a3,a3,a4
    6c38:	00165613          	srli	a2,a2,0x1
    6c3c:	00c6c6b3          	xor	a3,a3,a2
    6c40:	01069693          	slli	a3,a3,0x10
    6c44:	0106d693          	srli	a3,a3,0x10
    6c48:	0057d613          	srli	a2,a5,0x5
    6c4c:	00d64633          	xor	a2,a2,a3
    6c50:	00167613          	andi	a2,a2,1
    6c54:	40c00633          	neg	a2,a2
    6c58:	00e67633          	and	a2,a2,a4
    6c5c:	0016d693          	srli	a3,a3,0x1
    6c60:	00d64633          	xor	a2,a2,a3
    6c64:	01061613          	slli	a2,a2,0x10
    6c68:	01065613          	srli	a2,a2,0x10
    6c6c:	0067d693          	srli	a3,a5,0x6
    6c70:	00c6c6b3          	xor	a3,a3,a2
    6c74:	0016f693          	andi	a3,a3,1
    6c78:	40d006b3          	neg	a3,a3
    6c7c:	00e6f6b3          	and	a3,a3,a4
    6c80:	00165613          	srli	a2,a2,0x1
    6c84:	00c6c6b3          	xor	a3,a3,a2
    6c88:	01069693          	slli	a3,a3,0x10
    6c8c:	0106d693          	srli	a3,a3,0x10
    6c90:	0077d793          	srli	a5,a5,0x7
    6c94:	00d7c7b3          	xor	a5,a5,a3
    6c98:	0017f793          	andi	a5,a5,1
    6c9c:	40f007b3          	neg	a5,a5
    6ca0:	00e7f7b3          	and	a5,a5,a4
    6ca4:	0016d693          	srli	a3,a3,0x1
    6ca8:	00d7c7b3          	xor	a5,a5,a3
    6cac:	01079793          	slli	a5,a5,0x10
    6cb0:	00855513          	srli	a0,a0,0x8
    6cb4:	0107d793          	srli	a5,a5,0x10
    6cb8:	00f546b3          	xor	a3,a0,a5
    6cbc:	0016f693          	andi	a3,a3,1
    6cc0:	40d006b3          	neg	a3,a3
    6cc4:	00e6f6b3          	and	a3,a3,a4
    6cc8:	0017d793          	srli	a5,a5,0x1
    6ccc:	00f6c7b3          	xor	a5,a3,a5
    6cd0:	01079793          	slli	a5,a5,0x10
    6cd4:	0107d793          	srli	a5,a5,0x10
    6cd8:	00155693          	srli	a3,a0,0x1
    6cdc:	00f6c6b3          	xor	a3,a3,a5
    6ce0:	0016f693          	andi	a3,a3,1
    6ce4:	40d006b3          	neg	a3,a3
    6ce8:	00e6f6b3          	and	a3,a3,a4
    6cec:	0017d793          	srli	a5,a5,0x1
    6cf0:	00f6c6b3          	xor	a3,a3,a5
    6cf4:	01069693          	slli	a3,a3,0x10
    6cf8:	0106d693          	srli	a3,a3,0x10
    6cfc:	00255793          	srli	a5,a0,0x2
    6d00:	00d7c7b3          	xor	a5,a5,a3
    6d04:	0017f793          	andi	a5,a5,1
    6d08:	40f007b3          	neg	a5,a5
    6d0c:	00e7f7b3          	and	a5,a5,a4
    6d10:	0016d693          	srli	a3,a3,0x1
    6d14:	00d7c7b3          	xor	a5,a5,a3
    6d18:	01079793          	slli	a5,a5,0x10
    6d1c:	0107d793          	srli	a5,a5,0x10
    6d20:	00355693          	srli	a3,a0,0x3
    6d24:	00f6c6b3          	xor	a3,a3,a5
    6d28:	0016f693          	andi	a3,a3,1
    6d2c:	40d006b3          	neg	a3,a3
    6d30:	00e6f6b3          	and	a3,a3,a4
    6d34:	0017d793          	srli	a5,a5,0x1
    6d38:	00f6c6b3          	xor	a3,a3,a5
    6d3c:	01069693          	slli	a3,a3,0x10
    6d40:	0106d693          	srli	a3,a3,0x10
    6d44:	00455793          	srli	a5,a0,0x4
    6d48:	00d7c7b3          	xor	a5,a5,a3
    6d4c:	0017f793          	andi	a5,a5,1
    6d50:	40f007b3          	neg	a5,a5
    6d54:	00e7f7b3          	and	a5,a5,a4
    6d58:	0016d693          	srli	a3,a3,0x1
    6d5c:	00d7c7b3          	xor	a5,a5,a3
    6d60:	01079793          	slli	a5,a5,0x10
    6d64:	0107d793          	srli	a5,a5,0x10
    6d68:	00555693          	srli	a3,a0,0x5
    6d6c:	00f6c6b3          	xor	a3,a3,a5
    6d70:	0016f693          	andi	a3,a3,1
    6d74:	40d006b3          	neg	a3,a3
    6d78:	00e6f6b3          	and	a3,a3,a4
    6d7c:	0017d793          	srli	a5,a5,0x1
    6d80:	00f6c6b3          	xor	a3,a3,a5
    6d84:	01069693          	slli	a3,a3,0x10
    6d88:	0106d693          	srli	a3,a3,0x10
    6d8c:	00655793          	srli	a5,a0,0x6
    6d90:	00d7c7b3          	xor	a5,a5,a3
    6d94:	0017f793          	andi	a5,a5,1
    6d98:	40f007b3          	neg	a5,a5
    6d9c:	00e7f7b3          	and	a5,a5,a4
    6da0:	0016d693          	srli	a3,a3,0x1
    6da4:	00d7c7b3          	xor	a5,a5,a3
    6da8:	01079793          	slli	a5,a5,0x10
    6dac:	0107d793          	srli	a5,a5,0x10
    6db0:	00755513          	srli	a0,a0,0x7
    6db4:	00f54533          	xor	a0,a0,a5
    6db8:	00157513          	andi	a0,a0,1
    6dbc:	40a00533          	neg	a0,a0
    6dc0:	00e57533          	and	a0,a0,a4
    6dc4:	0017d793          	srli	a5,a5,0x1
    6dc8:	00f54533          	xor	a0,a0,a5
    6dcc:	01051513          	slli	a0,a0,0x10
    6dd0:	01055513          	srli	a0,a0,0x10
    6dd4:	00008067          	ret

00006dd8 <crcu32>:
    6dd8:	0ff57713          	zext.b	a4,a0
    6ddc:	00b74633          	xor	a2,a4,a1
    6de0:	00167613          	andi	a2,a2,1
    6de4:	ffffa7b7          	lui	a5,0xffffa
    6de8:	00178793          	addi	a5,a5,1 # ffffa001 <start_time_val+0xffff09e5>
    6dec:	40c00633          	neg	a2,a2
    6df0:	00f67633          	and	a2,a2,a5
    6df4:	0015d593          	srli	a1,a1,0x1
    6df8:	00b64633          	xor	a2,a2,a1
    6dfc:	01061613          	slli	a2,a2,0x10
    6e00:	01065613          	srli	a2,a2,0x10
    6e04:	00175693          	srli	a3,a4,0x1
    6e08:	00c6c6b3          	xor	a3,a3,a2
    6e0c:	0016f693          	andi	a3,a3,1
    6e10:	40d006b3          	neg	a3,a3
    6e14:	00f6f6b3          	and	a3,a3,a5
    6e18:	00165613          	srli	a2,a2,0x1
    6e1c:	00c6c6b3          	xor	a3,a3,a2
    6e20:	01069693          	slli	a3,a3,0x10
    6e24:	0106d693          	srli	a3,a3,0x10
    6e28:	00275613          	srli	a2,a4,0x2
    6e2c:	00d64633          	xor	a2,a2,a3
    6e30:	00167613          	andi	a2,a2,1
    6e34:	40c00633          	neg	a2,a2
    6e38:	00f67633          	and	a2,a2,a5
    6e3c:	0016d693          	srli	a3,a3,0x1
    6e40:	00d64633          	xor	a2,a2,a3
    6e44:	01061613          	slli	a2,a2,0x10
    6e48:	01065613          	srli	a2,a2,0x10
    6e4c:	00375693          	srli	a3,a4,0x3
    6e50:	00c6c6b3          	xor	a3,a3,a2
    6e54:	0016f693          	andi	a3,a3,1
    6e58:	40d006b3          	neg	a3,a3
    6e5c:	00f6f6b3          	and	a3,a3,a5
    6e60:	00165613          	srli	a2,a2,0x1
    6e64:	00c6c6b3          	xor	a3,a3,a2
    6e68:	01069693          	slli	a3,a3,0x10
    6e6c:	0106d693          	srli	a3,a3,0x10
    6e70:	00475613          	srli	a2,a4,0x4
    6e74:	00d64633          	xor	a2,a2,a3
    6e78:	00167613          	andi	a2,a2,1
    6e7c:	40c00633          	neg	a2,a2
    6e80:	00f67633          	and	a2,a2,a5
    6e84:	0016d693          	srli	a3,a3,0x1
    6e88:	00d64633          	xor	a2,a2,a3
    6e8c:	01061613          	slli	a2,a2,0x10
    6e90:	01065613          	srli	a2,a2,0x10
    6e94:	00575693          	srli	a3,a4,0x5
    6e98:	00c6c6b3          	xor	a3,a3,a2
    6e9c:	0016f693          	andi	a3,a3,1
    6ea0:	40d006b3          	neg	a3,a3
    6ea4:	00f6f6b3          	and	a3,a3,a5
    6ea8:	00165613          	srli	a2,a2,0x1
    6eac:	00c6c6b3          	xor	a3,a3,a2
    6eb0:	01069693          	slli	a3,a3,0x10
    6eb4:	0106d693          	srli	a3,a3,0x10
    6eb8:	00675613          	srli	a2,a4,0x6
    6ebc:	00d64633          	xor	a2,a2,a3
    6ec0:	00167613          	andi	a2,a2,1
    6ec4:	40c00633          	neg	a2,a2
    6ec8:	00f67633          	and	a2,a2,a5
    6ecc:	0016d693          	srli	a3,a3,0x1
    6ed0:	00d64633          	xor	a2,a2,a3
    6ed4:	01061613          	slli	a2,a2,0x10
    6ed8:	01065613          	srli	a2,a2,0x10
    6edc:	00775693          	srli	a3,a4,0x7
    6ee0:	00c6c6b3          	xor	a3,a3,a2
    6ee4:	0016f693          	andi	a3,a3,1
    6ee8:	40d006b3          	neg	a3,a3
    6eec:	00f6f6b3          	and	a3,a3,a5
    6ef0:	00165613          	srli	a2,a2,0x1
    6ef4:	00c6c6b3          	xor	a3,a3,a2
    6ef8:	01051713          	slli	a4,a0,0x10
    6efc:	01075713          	srli	a4,a4,0x10
    6f00:	01069693          	slli	a3,a3,0x10
    6f04:	00875713          	srli	a4,a4,0x8
    6f08:	0106d693          	srli	a3,a3,0x10
    6f0c:	00d74633          	xor	a2,a4,a3
    6f10:	00167613          	andi	a2,a2,1
    6f14:	40c00633          	neg	a2,a2
    6f18:	00f67633          	and	a2,a2,a5
    6f1c:	0016d693          	srli	a3,a3,0x1
    6f20:	00d64633          	xor	a2,a2,a3
    6f24:	01061613          	slli	a2,a2,0x10
    6f28:	01065613          	srli	a2,a2,0x10
    6f2c:	00175693          	srli	a3,a4,0x1
    6f30:	00c6c6b3          	xor	a3,a3,a2
    6f34:	0016f693          	andi	a3,a3,1
    6f38:	40d006b3          	neg	a3,a3
    6f3c:	00f6f6b3          	and	a3,a3,a5
    6f40:	00165613          	srli	a2,a2,0x1
    6f44:	00c6c6b3          	xor	a3,a3,a2
    6f48:	01069693          	slli	a3,a3,0x10
    6f4c:	0106d693          	srli	a3,a3,0x10
    6f50:	00275613          	srli	a2,a4,0x2
    6f54:	00d64633          	xor	a2,a2,a3
    6f58:	00167613          	andi	a2,a2,1
    6f5c:	40c00633          	neg	a2,a2
    6f60:	00f67633          	and	a2,a2,a5
    6f64:	0016d693          	srli	a3,a3,0x1
    6f68:	00d64633          	xor	a2,a2,a3
    6f6c:	01061613          	slli	a2,a2,0x10
    6f70:	01065613          	srli	a2,a2,0x10
    6f74:	00375693          	srli	a3,a4,0x3
    6f78:	00c6c6b3          	xor	a3,a3,a2
    6f7c:	0016f693          	andi	a3,a3,1
    6f80:	40d006b3          	neg	a3,a3
    6f84:	00f6f6b3          	and	a3,a3,a5
    6f88:	00165613          	srli	a2,a2,0x1
    6f8c:	00c6c6b3          	xor	a3,a3,a2
    6f90:	01069693          	slli	a3,a3,0x10
    6f94:	0106d693          	srli	a3,a3,0x10
    6f98:	00475613          	srli	a2,a4,0x4
    6f9c:	00d64633          	xor	a2,a2,a3
    6fa0:	00167613          	andi	a2,a2,1
    6fa4:	40c00633          	neg	a2,a2
    6fa8:	00f67633          	and	a2,a2,a5
    6fac:	0016d693          	srli	a3,a3,0x1
    6fb0:	00d64633          	xor	a2,a2,a3
    6fb4:	01061613          	slli	a2,a2,0x10
    6fb8:	01065613          	srli	a2,a2,0x10
    6fbc:	00575693          	srli	a3,a4,0x5
    6fc0:	00c6c6b3          	xor	a3,a3,a2
    6fc4:	0016f693          	andi	a3,a3,1
    6fc8:	40d006b3          	neg	a3,a3
    6fcc:	00f6f6b3          	and	a3,a3,a5
    6fd0:	00165613          	srli	a2,a2,0x1
    6fd4:	00c6c6b3          	xor	a3,a3,a2
    6fd8:	01069693          	slli	a3,a3,0x10
    6fdc:	0106d693          	srli	a3,a3,0x10
    6fe0:	00675613          	srli	a2,a4,0x6
    6fe4:	00d64633          	xor	a2,a2,a3
    6fe8:	00167613          	andi	a2,a2,1
    6fec:	40c00633          	neg	a2,a2
    6ff0:	00f67633          	and	a2,a2,a5
    6ff4:	0016d693          	srli	a3,a3,0x1
    6ff8:	00d64633          	xor	a2,a2,a3
    6ffc:	01061613          	slli	a2,a2,0x10
    7000:	01065613          	srli	a2,a2,0x10
    7004:	00775693          	srli	a3,a4,0x7
    7008:	00c6c6b3          	xor	a3,a3,a2
    700c:	0016f693          	andi	a3,a3,1
    7010:	40d006b3          	neg	a3,a3
    7014:	00f6f6b3          	and	a3,a3,a5
    7018:	00165613          	srli	a2,a2,0x1
    701c:	00c6c6b3          	xor	a3,a3,a2
    7020:	01055513          	srli	a0,a0,0x10
    7024:	01069693          	slli	a3,a3,0x10
    7028:	0ff57713          	zext.b	a4,a0
    702c:	0106d693          	srli	a3,a3,0x10
    7030:	00d74633          	xor	a2,a4,a3
    7034:	00167613          	andi	a2,a2,1
    7038:	40c00633          	neg	a2,a2
    703c:	00f67633          	and	a2,a2,a5
    7040:	0016d693          	srli	a3,a3,0x1
    7044:	00d646b3          	xor	a3,a2,a3
    7048:	01069693          	slli	a3,a3,0x10
    704c:	0106d693          	srli	a3,a3,0x10
    7050:	00175613          	srli	a2,a4,0x1
    7054:	00d64633          	xor	a2,a2,a3
    7058:	00167613          	andi	a2,a2,1
    705c:	40c00633          	neg	a2,a2
    7060:	00f67633          	and	a2,a2,a5
    7064:	0016d693          	srli	a3,a3,0x1
    7068:	00d64633          	xor	a2,a2,a3
    706c:	01061613          	slli	a2,a2,0x10
    7070:	01065613          	srli	a2,a2,0x10
    7074:	00275693          	srli	a3,a4,0x2
    7078:	00c6c6b3          	xor	a3,a3,a2
    707c:	0016f693          	andi	a3,a3,1
    7080:	40d006b3          	neg	a3,a3
    7084:	00f6f6b3          	and	a3,a3,a5
    7088:	00165613          	srli	a2,a2,0x1
    708c:	00c6c6b3          	xor	a3,a3,a2
    7090:	01069693          	slli	a3,a3,0x10
    7094:	0106d693          	srli	a3,a3,0x10
    7098:	00375613          	srli	a2,a4,0x3
    709c:	00d64633          	xor	a2,a2,a3
    70a0:	00167613          	andi	a2,a2,1
    70a4:	40c00633          	neg	a2,a2
    70a8:	00f67633          	and	a2,a2,a5
    70ac:	0016d693          	srli	a3,a3,0x1
    70b0:	00d64633          	xor	a2,a2,a3
    70b4:	01061613          	slli	a2,a2,0x10
    70b8:	01065613          	srli	a2,a2,0x10
    70bc:	00475693          	srli	a3,a4,0x4
    70c0:	00c6c6b3          	xor	a3,a3,a2
    70c4:	0016f693          	andi	a3,a3,1
    70c8:	40d006b3          	neg	a3,a3
    70cc:	00f6f6b3          	and	a3,a3,a5
    70d0:	00165613          	srli	a2,a2,0x1
    70d4:	00c6c6b3          	xor	a3,a3,a2
    70d8:	01069693          	slli	a3,a3,0x10
    70dc:	0106d693          	srli	a3,a3,0x10
    70e0:	00575613          	srli	a2,a4,0x5
    70e4:	00d64633          	xor	a2,a2,a3
    70e8:	00167613          	andi	a2,a2,1
    70ec:	40c00633          	neg	a2,a2
    70f0:	00f67633          	and	a2,a2,a5
    70f4:	0016d693          	srli	a3,a3,0x1
    70f8:	00d64633          	xor	a2,a2,a3
    70fc:	01061613          	slli	a2,a2,0x10
    7100:	01065613          	srli	a2,a2,0x10
    7104:	00675693          	srli	a3,a4,0x6
    7108:	00c6c6b3          	xor	a3,a3,a2
    710c:	0016f693          	andi	a3,a3,1
    7110:	40d006b3          	neg	a3,a3
    7114:	00f6f6b3          	and	a3,a3,a5
    7118:	00165613          	srli	a2,a2,0x1
    711c:	00c6c6b3          	xor	a3,a3,a2
    7120:	01069693          	slli	a3,a3,0x10
    7124:	0106d693          	srli	a3,a3,0x10
    7128:	00775713          	srli	a4,a4,0x7
    712c:	00d74733          	xor	a4,a4,a3
    7130:	00177713          	andi	a4,a4,1
    7134:	40e00733          	neg	a4,a4
    7138:	00f77733          	and	a4,a4,a5
    713c:	0016d693          	srli	a3,a3,0x1
    7140:	00d74733          	xor	a4,a4,a3
    7144:	01071713          	slli	a4,a4,0x10
    7148:	00855513          	srli	a0,a0,0x8
    714c:	01075713          	srli	a4,a4,0x10
    7150:	00e546b3          	xor	a3,a0,a4
    7154:	0016f693          	andi	a3,a3,1
    7158:	40d006b3          	neg	a3,a3
    715c:	00f6f6b3          	and	a3,a3,a5
    7160:	00175713          	srli	a4,a4,0x1
    7164:	00e6c733          	xor	a4,a3,a4
    7168:	01071713          	slli	a4,a4,0x10
    716c:	01075713          	srli	a4,a4,0x10
    7170:	00155693          	srli	a3,a0,0x1
    7174:	00e6c6b3          	xor	a3,a3,a4
    7178:	0016f693          	andi	a3,a3,1
    717c:	40d006b3          	neg	a3,a3
    7180:	00f6f6b3          	and	a3,a3,a5
    7184:	00175713          	srli	a4,a4,0x1
    7188:	00e6c6b3          	xor	a3,a3,a4
    718c:	01069693          	slli	a3,a3,0x10
    7190:	0106d693          	srli	a3,a3,0x10
    7194:	00255713          	srli	a4,a0,0x2
    7198:	00d74733          	xor	a4,a4,a3
    719c:	00177713          	andi	a4,a4,1
    71a0:	40e00733          	neg	a4,a4
    71a4:	00f77733          	and	a4,a4,a5
    71a8:	0016d693          	srli	a3,a3,0x1
    71ac:	00d74733          	xor	a4,a4,a3
    71b0:	01071713          	slli	a4,a4,0x10
    71b4:	01075713          	srli	a4,a4,0x10
    71b8:	00355693          	srli	a3,a0,0x3
    71bc:	00e6c6b3          	xor	a3,a3,a4
    71c0:	0016f693          	andi	a3,a3,1
    71c4:	40d006b3          	neg	a3,a3
    71c8:	00f6f6b3          	and	a3,a3,a5
    71cc:	00175713          	srli	a4,a4,0x1
    71d0:	00e6c6b3          	xor	a3,a3,a4
    71d4:	01069693          	slli	a3,a3,0x10
    71d8:	0106d693          	srli	a3,a3,0x10
    71dc:	00455713          	srli	a4,a0,0x4
    71e0:	00d74733          	xor	a4,a4,a3
    71e4:	00177713          	andi	a4,a4,1
    71e8:	40e00733          	neg	a4,a4
    71ec:	00f77733          	and	a4,a4,a5
    71f0:	0016d693          	srli	a3,a3,0x1
    71f4:	00d74733          	xor	a4,a4,a3
    71f8:	01071713          	slli	a4,a4,0x10
    71fc:	01075713          	srli	a4,a4,0x10
    7200:	00555693          	srli	a3,a0,0x5
    7204:	00e6c6b3          	xor	a3,a3,a4
    7208:	0016f693          	andi	a3,a3,1
    720c:	40d006b3          	neg	a3,a3
    7210:	00f6f6b3          	and	a3,a3,a5
    7214:	00175713          	srli	a4,a4,0x1
    7218:	00e6c6b3          	xor	a3,a3,a4
    721c:	01069693          	slli	a3,a3,0x10
    7220:	0106d693          	srli	a3,a3,0x10
    7224:	00655713          	srli	a4,a0,0x6
    7228:	00d74733          	xor	a4,a4,a3
    722c:	00177713          	andi	a4,a4,1
    7230:	40e00733          	neg	a4,a4
    7234:	00f77733          	and	a4,a4,a5
    7238:	0016d693          	srli	a3,a3,0x1
    723c:	00d74733          	xor	a4,a4,a3
    7240:	01071713          	slli	a4,a4,0x10
    7244:	01075713          	srli	a4,a4,0x10
    7248:	00755513          	srli	a0,a0,0x7
    724c:	00e54533          	xor	a0,a0,a4
    7250:	00157513          	andi	a0,a0,1
    7254:	40a00533          	neg	a0,a0
    7258:	00f57533          	and	a0,a0,a5
    725c:	00175713          	srli	a4,a4,0x1
    7260:	00e54533          	xor	a0,a0,a4
    7264:	01051513          	slli	a0,a0,0x10
    7268:	01055513          	srli	a0,a0,0x10
    726c:	00008067          	ret

00007270 <crc16>:
    7270:	0ff57793          	zext.b	a5,a0
    7274:	00b7c6b3          	xor	a3,a5,a1
    7278:	0016f693          	andi	a3,a3,1
    727c:	ffffa737          	lui	a4,0xffffa
    7280:	00170713          	addi	a4,a4,1 # ffffa001 <start_time_val+0xffff09e5>
    7284:	40d006b3          	neg	a3,a3
    7288:	00e6f6b3          	and	a3,a3,a4
    728c:	0015d593          	srli	a1,a1,0x1
    7290:	00b6c6b3          	xor	a3,a3,a1
    7294:	01069693          	slli	a3,a3,0x10
    7298:	0106d693          	srli	a3,a3,0x10
    729c:	0017d613          	srli	a2,a5,0x1
    72a0:	00d64633          	xor	a2,a2,a3
    72a4:	00167613          	andi	a2,a2,1
    72a8:	40c00633          	neg	a2,a2
    72ac:	00e67633          	and	a2,a2,a4
    72b0:	0016d693          	srli	a3,a3,0x1
    72b4:	00d64633          	xor	a2,a2,a3
    72b8:	01061613          	slli	a2,a2,0x10
    72bc:	01065613          	srli	a2,a2,0x10
    72c0:	0027d693          	srli	a3,a5,0x2
    72c4:	00c6c6b3          	xor	a3,a3,a2
    72c8:	0016f693          	andi	a3,a3,1
    72cc:	40d006b3          	neg	a3,a3
    72d0:	00e6f6b3          	and	a3,a3,a4
    72d4:	00165613          	srli	a2,a2,0x1
    72d8:	00c6c6b3          	xor	a3,a3,a2
    72dc:	01069693          	slli	a3,a3,0x10
    72e0:	0106d693          	srli	a3,a3,0x10
    72e4:	0037d613          	srli	a2,a5,0x3
    72e8:	00d64633          	xor	a2,a2,a3
    72ec:	00167613          	andi	a2,a2,1
    72f0:	40c00633          	neg	a2,a2
    72f4:	00e67633          	and	a2,a2,a4
    72f8:	0016d693          	srli	a3,a3,0x1
    72fc:	00d64633          	xor	a2,a2,a3
    7300:	01061613          	slli	a2,a2,0x10
    7304:	01065613          	srli	a2,a2,0x10
    7308:	0047d693          	srli	a3,a5,0x4
    730c:	00c6c6b3          	xor	a3,a3,a2
    7310:	0016f693          	andi	a3,a3,1
    7314:	40d006b3          	neg	a3,a3
    7318:	00e6f6b3          	and	a3,a3,a4
    731c:	00165613          	srli	a2,a2,0x1
    7320:	00c6c6b3          	xor	a3,a3,a2
    7324:	01069693          	slli	a3,a3,0x10
    7328:	0106d693          	srli	a3,a3,0x10
    732c:	0057d613          	srli	a2,a5,0x5
    7330:	00d64633          	xor	a2,a2,a3
    7334:	00167613          	andi	a2,a2,1
    7338:	40c00633          	neg	a2,a2
    733c:	00e67633          	and	a2,a2,a4
    7340:	0016d693          	srli	a3,a3,0x1
    7344:	00d64633          	xor	a2,a2,a3
    7348:	01061613          	slli	a2,a2,0x10
    734c:	01065613          	srli	a2,a2,0x10
    7350:	0067d693          	srli	a3,a5,0x6
    7354:	00c6c6b3          	xor	a3,a3,a2
    7358:	0016f693          	andi	a3,a3,1
    735c:	40d006b3          	neg	a3,a3
    7360:	00e6f6b3          	and	a3,a3,a4
    7364:	00165613          	srli	a2,a2,0x1
    7368:	00c6c6b3          	xor	a3,a3,a2
    736c:	01069693          	slli	a3,a3,0x10
    7370:	0106d693          	srli	a3,a3,0x10
    7374:	0077d793          	srli	a5,a5,0x7
    7378:	00d7c7b3          	xor	a5,a5,a3
    737c:	0017f793          	andi	a5,a5,1
    7380:	40f007b3          	neg	a5,a5
    7384:	00e7f7b3          	and	a5,a5,a4
    7388:	0016d693          	srli	a3,a3,0x1
    738c:	00d7c7b3          	xor	a5,a5,a3
    7390:	01051513          	slli	a0,a0,0x10
    7394:	01055513          	srli	a0,a0,0x10
    7398:	01079793          	slli	a5,a5,0x10
    739c:	00855513          	srli	a0,a0,0x8
    73a0:	0107d793          	srli	a5,a5,0x10
    73a4:	00f546b3          	xor	a3,a0,a5
    73a8:	0016f693          	andi	a3,a3,1
    73ac:	40d006b3          	neg	a3,a3
    73b0:	00e6f6b3          	and	a3,a3,a4
    73b4:	0017d793          	srli	a5,a5,0x1
    73b8:	00f6c7b3          	xor	a5,a3,a5
    73bc:	01079793          	slli	a5,a5,0x10
    73c0:	0107d793          	srli	a5,a5,0x10
    73c4:	00155693          	srli	a3,a0,0x1
    73c8:	00f6c6b3          	xor	a3,a3,a5
    73cc:	0016f693          	andi	a3,a3,1
    73d0:	40d006b3          	neg	a3,a3
    73d4:	00e6f6b3          	and	a3,a3,a4
    73d8:	0017d793          	srli	a5,a5,0x1
    73dc:	00f6c6b3          	xor	a3,a3,a5
    73e0:	01069693          	slli	a3,a3,0x10
    73e4:	0106d693          	srli	a3,a3,0x10
    73e8:	00255793          	srli	a5,a0,0x2
    73ec:	00d7c7b3          	xor	a5,a5,a3
    73f0:	0017f793          	andi	a5,a5,1
    73f4:	40f007b3          	neg	a5,a5
    73f8:	00e7f7b3          	and	a5,a5,a4
    73fc:	0016d693          	srli	a3,a3,0x1
    7400:	00d7c7b3          	xor	a5,a5,a3
    7404:	01079793          	slli	a5,a5,0x10
    7408:	0107d793          	srli	a5,a5,0x10
    740c:	00355693          	srli	a3,a0,0x3
    7410:	00f6c6b3          	xor	a3,a3,a5
    7414:	0016f693          	andi	a3,a3,1
    7418:	40d006b3          	neg	a3,a3
    741c:	00e6f6b3          	and	a3,a3,a4
    7420:	0017d793          	srli	a5,a5,0x1
    7424:	00f6c6b3          	xor	a3,a3,a5
    7428:	01069693          	slli	a3,a3,0x10
    742c:	0106d693          	srli	a3,a3,0x10
    7430:	00455793          	srli	a5,a0,0x4
    7434:	00d7c7b3          	xor	a5,a5,a3
    7438:	0017f793          	andi	a5,a5,1
    743c:	40f007b3          	neg	a5,a5
    7440:	00e7f7b3          	and	a5,a5,a4
    7444:	0016d693          	srli	a3,a3,0x1
    7448:	00d7c7b3          	xor	a5,a5,a3
    744c:	01079793          	slli	a5,a5,0x10
    7450:	0107d793          	srli	a5,a5,0x10
    7454:	00555693          	srli	a3,a0,0x5
    7458:	00f6c6b3          	xor	a3,a3,a5
    745c:	0016f693          	andi	a3,a3,1
    7460:	40d006b3          	neg	a3,a3
    7464:	00e6f6b3          	and	a3,a3,a4
    7468:	0017d793          	srli	a5,a5,0x1
    746c:	00f6c6b3          	xor	a3,a3,a5
    7470:	01069693          	slli	a3,a3,0x10
    7474:	0106d693          	srli	a3,a3,0x10
    7478:	00655793          	srli	a5,a0,0x6
    747c:	00d7c7b3          	xor	a5,a5,a3
    7480:	0017f793          	andi	a5,a5,1
    7484:	40f007b3          	neg	a5,a5
    7488:	00e7f7b3          	and	a5,a5,a4
    748c:	0016d693          	srli	a3,a3,0x1
    7490:	00d7c7b3          	xor	a5,a5,a3
    7494:	01079793          	slli	a5,a5,0x10
    7498:	0107d793          	srli	a5,a5,0x10
    749c:	00755513          	srli	a0,a0,0x7
    74a0:	00f54533          	xor	a0,a0,a5
    74a4:	00157513          	andi	a0,a0,1
    74a8:	40a00533          	neg	a0,a0
    74ac:	00e57533          	and	a0,a0,a4
    74b0:	0017d793          	srli	a5,a5,0x1
    74b4:	00f54533          	xor	a0,a0,a5
    74b8:	01051513          	slli	a0,a0,0x10
    74bc:	01055513          	srli	a0,a0,0x10
    74c0:	00008067          	ret

000074c4 <check_data_types>:
    74c4:	00000513          	li	a0,0
    74c8:	00008067          	ret

000074cc <barebones_clock>:
    74cc:	c0002573          	rdcycle	a0
    74d0:	00008067          	ret

000074d4 <start_time>:
    74d4:	c0002773          	rdcycle	a4
    74d8:	000097b7          	lui	a5,0x9
    74dc:	60e7ae23          	sw	a4,1564(a5) # 961c <start_time_val>
    74e0:	00008067          	ret

000074e4 <stop_time>:
    74e4:	c0002773          	rdcycle	a4
    74e8:	000097b7          	lui	a5,0x9
    74ec:	60e7ac23          	sw	a4,1560(a5) # 9618 <stop_time_val>
    74f0:	00008067          	ret

000074f4 <get_time>:
    74f4:	000097b7          	lui	a5,0x9
    74f8:	6187a503          	lw	a0,1560(a5) # 9618 <stop_time_val>
    74fc:	000097b7          	lui	a5,0x9
    7500:	61c7a783          	lw	a5,1564(a5) # 961c <start_time_val>
    7504:	40f50533          	sub	a0,a0,a5
    7508:	00008067          	ret

0000750c <time_in_secs>:
    750c:	019c07b7          	lui	a5,0x19c0
    7510:	cc078793          	addi	a5,a5,-832 # 19bfcc0 <start_time_val+0x19b66a4>
    7514:	02f55533          	divu	a0,a0,a5
    7518:	00008067          	ret

0000751c <portable_init>:
    751c:	00100793          	li	a5,1
    7520:	00f50023          	sb	a5,0(a0)
    7524:	00008067          	ret

00007528 <portable_fini>:
    7528:	00050023          	sb	zero,0(a0)
    752c:	00008067          	ret

00007530 <number>:
    7530:	fa010113          	addi	sp,sp,-96
    7534:	04812e23          	sw	s0,92(sp)
    7538:	04912c23          	sw	s1,88(sp)
    753c:	0407f813          	andi	a6,a5,64
    7540:	42081663          	bnez	a6,796c <number+0x43c>
    7544:	00009f37          	lui	t5,0x9
    7548:	340f0f13          	addi	t5,t5,832 # 9340 <ee_printf+0x18a0>
    754c:	0107f393          	andi	t2,a5,16
    7550:	3e038e63          	beqz	t2,794c <number+0x41c>
    7554:	ffe7f793          	andi	a5,a5,-2
    7558:	01000493          	li	s1,16
    755c:	02000f93          	li	t6,32
    7560:	0027f813          	andi	a6,a5,2
    7564:	0207f293          	andi	t0,a5,32
    7568:	40080863          	beqz	a6,7978 <number+0x448>
    756c:	4005ca63          	bltz	a1,7980 <number+0x450>
    7570:	0047f813          	andi	a6,a5,4
    7574:	44081a63          	bnez	a6,79c8 <number+0x498>
    7578:	0087f793          	andi	a5,a5,8
    757c:	00000413          	li	s0,0
    7580:	00078663          	beqz	a5,758c <number+0x5c>
    7584:	fff68693          	addi	a3,a3,-1
    7588:	02000413          	li	s0,32
    758c:	00028e63          	beqz	t0,75a8 <number+0x78>
    7590:	01000793          	li	a5,16
    7594:	46f60e63          	beq	a2,a5,7a10 <number+0x4e0>
    7598:	ff860793          	addi	a5,a2,-8
    759c:	0017b793          	seqz	a5,a5
    75a0:	02000293          	li	t0,32
    75a4:	40f686b3          	sub	a3,a3,a5
    75a8:	3e059463          	bnez	a1,7990 <number+0x460>
    75ac:	03000793          	li	a5,48
    75b0:	00f10623          	sb	a5,12(sp)
    75b4:	00100813          	li	a6,1
    75b8:	00c10313          	addi	t1,sp,12
    75bc:	00080893          	mv	a7,a6
    75c0:	00e85463          	bge	a6,a4,75c8 <number+0x98>
    75c4:	00070893          	mv	a7,a4
    75c8:	411686b3          	sub	a3,a3,a7
    75cc:	0c049663          	bnez	s1,7698 <number+0x168>
    75d0:	fff68e13          	addi	t3,a3,-1
    75d4:	48d05a63          	blez	a3,7a68 <number+0x538>
    75d8:	40a00733          	neg	a4,a0
    75dc:	00500e93          	li	t4,5
    75e0:	00377793          	andi	a5,a4,3
    75e4:	49cefe63          	bgeu	t4,t3,7a80 <number+0x550>
    75e8:	05212a23          	sw	s2,84(sp)
    75ec:	00050e93          	mv	t4,a0
    75f0:	02078663          	beqz	a5,761c <number+0xec>
    75f4:	02000e13          	li	t3,32
    75f8:	01c50023          	sb	t3,0(a0)
    75fc:	00277713          	andi	a4,a4,2
    7600:	3e070663          	beqz	a4,79ec <number+0x4bc>
    7604:	01c500a3          	sb	t3,1(a0)
    7608:	00300713          	li	a4,3
    760c:	44e79863          	bne	a5,a4,7a5c <number+0x52c>
    7610:	01c50123          	sb	t3,2(a0)
    7614:	00350e93          	addi	t4,a0,3
    7618:	ffc68e13          	addi	t3,a3,-4
    761c:	40f68933          	sub	s2,a3,a5
    7620:	ffc97493          	andi	s1,s2,-4
    7624:	00f507b3          	add	a5,a0,a5
    7628:	20202737          	lui	a4,0x20202
    762c:	00978f33          	add	t5,a5,s1
    7630:	02070713          	addi	a4,a4,32 # 20202020 <start_time_val+0x201f8a04>
    7634:	00e7a023          	sw	a4,0(a5)
    7638:	00478793          	addi	a5,a5,4
    763c:	ffe79ce3          	bne	a5,t5,7634 <number+0x104>
    7640:	009e87b3          	add	a5,t4,s1
    7644:	409e0e33          	sub	t3,t3,s1
    7648:	3e990e63          	beq	s2,s1,7a44 <number+0x514>
    764c:	05412903          	lw	s2,84(sp)
    7650:	02000713          	li	a4,32
    7654:	00e78023          	sb	a4,0(a5)
    7658:	03c05c63          	blez	t3,7690 <number+0x160>
    765c:	00e780a3          	sb	a4,1(a5)
    7660:	00100e93          	li	t4,1
    7664:	03de0663          	beq	t3,t4,7690 <number+0x160>
    7668:	00e78123          	sb	a4,2(a5)
    766c:	00200e93          	li	t4,2
    7670:	03de0063          	beq	t3,t4,7690 <number+0x160>
    7674:	00e781a3          	sb	a4,3(a5)
    7678:	00300e93          	li	t4,3
    767c:	01de0a63          	beq	t3,t4,7690 <number+0x160>
    7680:	00e78223          	sb	a4,4(a5)
    7684:	00400e93          	li	t4,4
    7688:	01de0463          	beq	t3,t4,7690 <number+0x160>
    768c:	00e782a3          	sb	a4,5(a5)
    7690:	00d50533          	add	a0,a0,a3
    7694:	fff00693          	li	a3,-1
    7698:	00040663          	beqz	s0,76a4 <number+0x174>
    769c:	00850023          	sb	s0,0(a0)
    76a0:	00150513          	addi	a0,a0,1
    76a4:	00028a63          	beqz	t0,76b8 <number+0x188>
    76a8:	00800793          	li	a5,8
    76ac:	36f60863          	beq	a2,a5,7a1c <number+0x4ec>
    76b0:	01000793          	li	a5,16
    76b4:	32f60063          	beq	a2,a5,79d4 <number+0x4a4>
    76b8:	0c039e63          	bnez	t2,7794 <number+0x264>
    76bc:	fff68613          	addi	a2,a3,-1
    76c0:	3ad05863          	blez	a3,7a70 <number+0x540>
    76c4:	40a00733          	neg	a4,a0
    76c8:	00500e13          	li	t3,5
    76cc:	00377793          	andi	a5,a4,3
    76d0:	3ace7463          	bgeu	t3,a2,7a78 <number+0x548>
    76d4:	00050e13          	mv	t3,a0
    76d8:	02078c63          	beqz	a5,7710 <number+0x1e0>
    76dc:	01f50023          	sb	t6,0(a0)
    76e0:	00277713          	andi	a4,a4,2
    76e4:	00150e13          	addi	t3,a0,1
    76e8:	ffe68613          	addi	a2,a3,-2
    76ec:	02070263          	beqz	a4,7710 <number+0x1e0>
    76f0:	01f500a3          	sb	t6,1(a0)
    76f4:	00300713          	li	a4,3
    76f8:	00250e13          	addi	t3,a0,2
    76fc:	ffd68613          	addi	a2,a3,-3
    7700:	00e79863          	bne	a5,a4,7710 <number+0x1e0>
    7704:	00350e13          	addi	t3,a0,3
    7708:	01f50123          	sb	t6,2(a0)
    770c:	ffc68613          	addi	a2,a3,-4
    7710:	008f9713          	slli	a4,t6,0x8
    7714:	40f682b3          	sub	t0,a3,a5
    7718:	010f9f13          	slli	t5,t6,0x10
    771c:	00efe733          	or	a4,t6,a4
    7720:	018f9e93          	slli	t4,t6,0x18
    7724:	01e76733          	or	a4,a4,t5
    7728:	00f507b3          	add	a5,a0,a5
    772c:	ffc2ff13          	andi	t5,t0,-4
    7730:	01d76733          	or	a4,a4,t4
    7734:	00ff0eb3          	add	t4,t5,a5
    7738:	00e7a023          	sw	a4,0(a5)
    773c:	00478793          	addi	a5,a5,4
    7740:	fefe9ce3          	bne	t4,a5,7738 <number+0x208>
    7744:	01ee07b3          	add	a5,t3,t5
    7748:	41e60633          	sub	a2,a2,t5
    774c:	05e28063          	beq	t0,t5,778c <number+0x25c>
    7750:	01f78023          	sb	t6,0(a5)
    7754:	02c05c63          	blez	a2,778c <number+0x25c>
    7758:	01f780a3          	sb	t6,1(a5)
    775c:	00100713          	li	a4,1
    7760:	02e60663          	beq	a2,a4,778c <number+0x25c>
    7764:	01f78123          	sb	t6,2(a5)
    7768:	00200713          	li	a4,2
    776c:	02e60063          	beq	a2,a4,778c <number+0x25c>
    7770:	01f781a3          	sb	t6,3(a5)
    7774:	00300713          	li	a4,3
    7778:	00e60a63          	beq	a2,a4,778c <number+0x25c>
    777c:	01f78223          	sb	t6,4(a5)
    7780:	00400713          	li	a4,4
    7784:	00e60463          	beq	a2,a4,778c <number+0x25c>
    7788:	01f782a3          	sb	t6,5(a5)
    778c:	00d50533          	add	a0,a0,a3
    7790:	fff00693          	li	a3,-1
    7794:	fff88613          	addi	a2,a7,-1
    7798:	0d185063          	bge	a6,a7,7858 <number+0x328>
    779c:	41088f33          	sub	t5,a7,a6
    77a0:	40a00733          	neg	a4,a0
    77a4:	ffff0e93          	addi	t4,t5,-1
    77a8:	00500e13          	li	t3,5
    77ac:	00377793          	andi	a5,a4,3
    77b0:	29de7e63          	bgeu	t3,t4,7a4c <number+0x51c>
    77b4:	00050e13          	mv	t3,a0
    77b8:	02078663          	beqz	a5,77e4 <number+0x2b4>
    77bc:	03000613          	li	a2,48
    77c0:	00c50023          	sb	a2,0(a0)
    77c4:	00277713          	andi	a4,a4,2
    77c8:	22070e63          	beqz	a4,7a04 <number+0x4d4>
    77cc:	00c500a3          	sb	a2,1(a0)
    77d0:	00300713          	li	a4,3
    77d4:	24e79c63          	bne	a5,a4,7a2c <number+0x4fc>
    77d8:	00c50123          	sb	a2,2(a0)
    77dc:	00350e13          	addi	t3,a0,3
    77e0:	ffc88613          	addi	a2,a7,-4
    77e4:	40ff0fb3          	sub	t6,t5,a5
    77e8:	ffcffe93          	andi	t4,t6,-4
    77ec:	00f507b3          	add	a5,a0,a5
    77f0:	30303737          	lui	a4,0x30303
    77f4:	01d788b3          	add	a7,a5,t4
    77f8:	03070713          	addi	a4,a4,48 # 30303030 <start_time_val+0x302f9a14>
    77fc:	00e7a023          	sw	a4,0(a5)
    7800:	00478793          	addi	a5,a5,4
    7804:	ff179ce3          	bne	a5,a7,77fc <number+0x2cc>
    7808:	05df8663          	beq	t6,t4,7854 <number+0x324>
    780c:	01de07b3          	add	a5,t3,t4
    7810:	41d60633          	sub	a2,a2,t4
    7814:	03000713          	li	a4,48
    7818:	00e78023          	sb	a4,0(a5)
    781c:	fff60893          	addi	a7,a2,-1
    7820:	02c85a63          	bge	a6,a2,7854 <number+0x324>
    7824:	00e780a3          	sb	a4,1(a5)
    7828:	ffe60e13          	addi	t3,a2,-2
    782c:	03185463          	bge	a6,a7,7854 <number+0x324>
    7830:	00e78123          	sb	a4,2(a5)
    7834:	ffd60893          	addi	a7,a2,-3
    7838:	01c85e63          	bge	a6,t3,7854 <number+0x324>
    783c:	00e781a3          	sb	a4,3(a5)
    7840:	ffc60613          	addi	a2,a2,-4
    7844:	01185863          	bge	a6,a7,7854 <number+0x324>
    7848:	00e78223          	sb	a4,4(a5)
    784c:	00c85463          	bge	a6,a2,7854 <number+0x324>
    7850:	00e782a3          	sb	a4,5(a5)
    7854:	01e50533          	add	a0,a0,t5
    7858:	00b307b3          	add	a5,t1,a1
    785c:	00050713          	mv	a4,a0
    7860:	0007c803          	lbu	a6,0(a5)
    7864:	00078613          	mv	a2,a5
    7868:	00170713          	addi	a4,a4,1
    786c:	ff070fa3          	sb	a6,-1(a4)
    7870:	fff78793          	addi	a5,a5,-1
    7874:	fec316e3          	bne	t1,a2,7860 <number+0x330>
    7878:	00158593          	addi	a1,a1,1
    787c:	00b50533          	add	a0,a0,a1
    7880:	fff68613          	addi	a2,a3,-1
    7884:	0ad05c63          	blez	a3,793c <number+0x40c>
    7888:	40a00733          	neg	a4,a0
    788c:	00500593          	li	a1,5
    7890:	00377793          	andi	a5,a4,3
    7894:	1cc5f063          	bgeu	a1,a2,7a54 <number+0x524>
    7898:	00050593          	mv	a1,a0
    789c:	02078663          	beqz	a5,78c8 <number+0x398>
    78a0:	02000613          	li	a2,32
    78a4:	00c50023          	sb	a2,0(a0)
    78a8:	00277713          	andi	a4,a4,2
    78ac:	14070663          	beqz	a4,79f8 <number+0x4c8>
    78b0:	00c500a3          	sb	a2,1(a0)
    78b4:	00300713          	li	a4,3
    78b8:	18e79063          	bne	a5,a4,7a38 <number+0x508>
    78bc:	00c50123          	sb	a2,2(a0)
    78c0:	00350593          	addi	a1,a0,3
    78c4:	ffc68613          	addi	a2,a3,-4
    78c8:	40f68333          	sub	t1,a3,a5
    78cc:	ffc37893          	andi	a7,t1,-4
    78d0:	00f507b3          	add	a5,a0,a5
    78d4:	20202737          	lui	a4,0x20202
    78d8:	00f88833          	add	a6,a7,a5
    78dc:	02070713          	addi	a4,a4,32 # 20202020 <start_time_val+0x201f8a04>
    78e0:	00e7a023          	sw	a4,0(a5)
    78e4:	00478793          	addi	a5,a5,4
    78e8:	ff079ce3          	bne	a5,a6,78e0 <number+0x3b0>
    78ec:	05130663          	beq	t1,a7,7938 <number+0x408>
    78f0:	011587b3          	add	a5,a1,a7
    78f4:	41160633          	sub	a2,a2,a7
    78f8:	02000713          	li	a4,32
    78fc:	00e78023          	sb	a4,0(a5)
    7900:	02c05c63          	blez	a2,7938 <number+0x408>
    7904:	00e780a3          	sb	a4,1(a5)
    7908:	00100593          	li	a1,1
    790c:	02b60663          	beq	a2,a1,7938 <number+0x408>
    7910:	00e78123          	sb	a4,2(a5)
    7914:	00200593          	li	a1,2
    7918:	02b60063          	beq	a2,a1,7938 <number+0x408>
    791c:	00e781a3          	sb	a4,3(a5)
    7920:	00300593          	li	a1,3
    7924:	00b60a63          	beq	a2,a1,7938 <number+0x408>
    7928:	00e78223          	sb	a4,4(a5)
    792c:	00400593          	li	a1,4
    7930:	00b60463          	beq	a2,a1,7938 <number+0x408>
    7934:	00e782a3          	sb	a4,5(a5)
    7938:	00d50533          	add	a0,a0,a3
    793c:	05c12403          	lw	s0,92(sp)
    7940:	05812483          	lw	s1,88(sp)
    7944:	06010113          	addi	sp,sp,96
    7948:	00008067          	ret
    794c:	0017f813          	andi	a6,a5,1
    7950:	0117f493          	andi	s1,a5,17
    7954:	12080a63          	beqz	a6,7a88 <number+0x558>
    7958:	0027f813          	andi	a6,a5,2
    795c:	03000f93          	li	t6,48
    7960:	0207f293          	andi	t0,a5,32
    7964:	00080a63          	beqz	a6,7978 <number+0x448>
    7968:	c05ff06f          	j	756c <number+0x3c>
    796c:	00009f37          	lui	t5,0x9
    7970:	368f0f13          	addi	t5,t5,872 # 9368 <ee_printf+0x18c8>
    7974:	bd9ff06f          	j	754c <number+0x1c>
    7978:	00000413          	li	s0,0
    797c:	c11ff06f          	j	758c <number+0x5c>
    7980:	40b005b3          	neg	a1,a1
    7984:	fff68693          	addi	a3,a3,-1
    7988:	02d00413          	li	s0,45
    798c:	c00292e3          	bnez	t0,7590 <number+0x60>
    7990:	00058793          	mv	a5,a1
    7994:	00000813          	li	a6,0
    7998:	00c10313          	addi	t1,sp,12
    799c:	02c7f8b3          	remu	a7,a5,a2
    79a0:	00080593          	mv	a1,a6
    79a4:	00180813          	addi	a6,a6,1
    79a8:	01030eb3          	add	t4,t1,a6
    79ac:	00078e13          	mv	t3,a5
    79b0:	011f08b3          	add	a7,t5,a7
    79b4:	0008c883          	lbu	a7,0(a7)
    79b8:	02c7d7b3          	divu	a5,a5,a2
    79bc:	ff1e8fa3          	sb	a7,-1(t4)
    79c0:	fcce7ee3          	bgeu	t3,a2,799c <number+0x46c>
    79c4:	bf9ff06f          	j	75bc <number+0x8c>
    79c8:	fff68693          	addi	a3,a3,-1
    79cc:	02b00413          	li	s0,43
    79d0:	bbdff06f          	j	758c <number+0x5c>
    79d4:	03000793          	li	a5,48
    79d8:	00f50023          	sb	a5,0(a0)
    79dc:	07800793          	li	a5,120
    79e0:	00f500a3          	sb	a5,1(a0)
    79e4:	00250513          	addi	a0,a0,2
    79e8:	cd1ff06f          	j	76b8 <number+0x188>
    79ec:	00150e93          	addi	t4,a0,1
    79f0:	ffe68e13          	addi	t3,a3,-2
    79f4:	c29ff06f          	j	761c <number+0xec>
    79f8:	00150593          	addi	a1,a0,1
    79fc:	ffe68613          	addi	a2,a3,-2
    7a00:	ec9ff06f          	j	78c8 <number+0x398>
    7a04:	00150e13          	addi	t3,a0,1
    7a08:	ffe88613          	addi	a2,a7,-2
    7a0c:	dd9ff06f          	j	77e4 <number+0x2b4>
    7a10:	ffe68693          	addi	a3,a3,-2
    7a14:	02000293          	li	t0,32
    7a18:	b91ff06f          	j	75a8 <number+0x78>
    7a1c:	03000793          	li	a5,48
    7a20:	00f50023          	sb	a5,0(a0)
    7a24:	00150513          	addi	a0,a0,1
    7a28:	c91ff06f          	j	76b8 <number+0x188>
    7a2c:	00250e13          	addi	t3,a0,2
    7a30:	ffd88613          	addi	a2,a7,-3
    7a34:	db1ff06f          	j	77e4 <number+0x2b4>
    7a38:	00250593          	addi	a1,a0,2
    7a3c:	ffd68613          	addi	a2,a3,-3
    7a40:	e89ff06f          	j	78c8 <number+0x398>
    7a44:	05412903          	lw	s2,84(sp)
    7a48:	c49ff06f          	j	7690 <number+0x160>
    7a4c:	00050793          	mv	a5,a0
    7a50:	dc5ff06f          	j	7814 <number+0x2e4>
    7a54:	00050793          	mv	a5,a0
    7a58:	ea1ff06f          	j	78f8 <number+0x3c8>
    7a5c:	00250e93          	addi	t4,a0,2
    7a60:	ffd68e13          	addi	t3,a3,-3
    7a64:	bb9ff06f          	j	761c <number+0xec>
    7a68:	000e0693          	mv	a3,t3
    7a6c:	c2dff06f          	j	7698 <number+0x168>
    7a70:	00060693          	mv	a3,a2
    7a74:	d21ff06f          	j	7794 <number+0x264>
    7a78:	00050793          	mv	a5,a0
    7a7c:	cd5ff06f          	j	7750 <number+0x220>
    7a80:	00050793          	mv	a5,a0
    7a84:	bcdff06f          	j	7650 <number+0x120>
    7a88:	00000493          	li	s1,0
    7a8c:	02000f93          	li	t6,32
    7a90:	ad1ff06f          	j	7560 <number+0x30>

00007a94 <uart_send_char>:
    7a94:	ff0007b7          	lui	a5,0xff000
    7a98:	00a7a023          	sw	a0,0(a5) # ff000000 <start_time_val+0xfeff69e4>
    7a9c:	00008067          	ret

00007aa0 <ee_printf>:
    7aa0:	b7010113          	addi	sp,sp,-1168
    7aa4:	46912223          	sw	s1,1124(sp)
    7aa8:	46112623          	sw	ra,1132(sp)
    7aac:	45412c23          	sw	s4,1112(sp)
    7ab0:	46b12a23          	sw	a1,1140(sp)
    7ab4:	46c12c23          	sw	a2,1144(sp)
    7ab8:	46d12e23          	sw	a3,1148(sp)
    7abc:	48e12023          	sw	a4,1152(sp)
    7ac0:	48f12223          	sw	a5,1156(sp)
    7ac4:	49012423          	sw	a6,1160(sp)
    7ac8:	49112623          	sw	a7,1164(sp)
    7acc:	00054783          	lbu	a5,0(a0)
    7ad0:	47410493          	addi	s1,sp,1140
    7ad4:	00912a23          	sw	s1,20(sp)
    7ad8:	00079463          	bnez	a5,7ae0 <ee_printf+0x40>
    7adc:	0240106f          	j	8b00 <ee_printf+0x1060>
    7ae0:	47212023          	sw	s2,1120(sp)
    7ae4:	03010a13          	addi	s4,sp,48
    7ae8:	00009937          	lui	s2,0x9
    7aec:	46812423          	sw	s0,1128(sp)
    7af0:	45312e23          	sw	s3,1116(sp)
    7af4:	45512a23          	sw	s5,1108(sp)
    7af8:	45612823          	sw	s6,1104(sp)
    7afc:	45712623          	sw	s7,1100(sp)
    7b00:	00050313          	mv	t1,a0
    7b04:	45812423          	sw	s8,1096(sp)
    7b08:	000a0513          	mv	a0,s4
    7b0c:	02500993          	li	s3,37
    7b10:	01000413          	li	s0,16
    7b14:	3f090913          	addi	s2,s2,1008 # 93f0 <errpat+0x28>
    7b18:	00900b93          	li	s7,9
    7b1c:	02e00b13          	li	s6,46
    7b20:	04c00a93          	li	s5,76
    7b24:	07378c63          	beq	a5,s3,7b9c <ee_printf+0xfc>
    7b28:	00f50023          	sb	a5,0(a0)
    7b2c:	00134783          	lbu	a5,1(t1)
    7b30:	00150513          	addi	a0,a0,1
    7b34:	00130313          	addi	t1,t1,1
    7b38:	fe0796e3          	bnez	a5,7b24 <ee_printf+0x84>
    7b3c:	46812403          	lw	s0,1128(sp)
    7b40:	46012903          	lw	s2,1120(sp)
    7b44:	45c12983          	lw	s3,1116(sp)
    7b48:	45412a83          	lw	s5,1108(sp)
    7b4c:	45012b03          	lw	s6,1104(sp)
    7b50:	44c12b83          	lw	s7,1100(sp)
    7b54:	44812c03          	lw	s8,1096(sp)
    7b58:	00050023          	sb	zero,0(a0)
    7b5c:	03014703          	lbu	a4,48(sp)
    7b60:	780704e3          	beqz	a4,8ae8 <ee_printf+0x1048>
    7b64:	000a0793          	mv	a5,s4
    7b68:	ff0006b7          	lui	a3,0xff000
    7b6c:	00e6a023          	sw	a4,0(a3) # ff000000 <start_time_val+0xfeff69e4>
    7b70:	0017c703          	lbu	a4,1(a5)
    7b74:	00078513          	mv	a0,a5
    7b78:	00178793          	addi	a5,a5,1
    7b7c:	fe0718e3          	bnez	a4,7b6c <ee_printf+0xcc>
    7b80:	46c12083          	lw	ra,1132(sp)
    7b84:	41450533          	sub	a0,a0,s4
    7b88:	46412483          	lw	s1,1124(sp)
    7b8c:	45812a03          	lw	s4,1112(sp)
    7b90:	00150513          	addi	a0,a0,1
    7b94:	49010113          	addi	sp,sp,1168
    7b98:	00008067          	ret
    7b9c:	00000793          	li	a5,0
    7ba0:	00134583          	lbu	a1,1(t1)
    7ba4:	00130613          	addi	a2,t1,1
    7ba8:	fe058713          	addi	a4,a1,-32
    7bac:	0ff77713          	zext.b	a4,a4
    7bb0:	00e46a63          	bltu	s0,a4,7bc4 <ee_printf+0x124>
    7bb4:	00271713          	slli	a4,a4,0x2
    7bb8:	01270733          	add	a4,a4,s2
    7bbc:	00072703          	lw	a4,0(a4)
    7bc0:	00070067          	jr	a4
    7bc4:	fd058713          	addi	a4,a1,-48
    7bc8:	0ff77713          	zext.b	a4,a4
    7bcc:	10ebfc63          	bgeu	s7,a4,7ce4 <ee_printf+0x244>
    7bd0:	02a00713          	li	a4,42
    7bd4:	fff00693          	li	a3,-1
    7bd8:	14e58463          	beq	a1,a4,7d20 <ee_printf+0x280>
    7bdc:	fff00713          	li	a4,-1
    7be0:	0d658c63          	beq	a1,s6,7cb8 <ee_printf+0x218>
    7be4:	0df5f813          	andi	a6,a1,223
    7be8:	09580e63          	beq	a6,s5,7c84 <ee_printf+0x1e4>
    7bec:	fbf58813          	addi	a6,a1,-65
    7bf0:	0ff87813          	zext.b	a6,a6
    7bf4:	03700893          	li	a7,55
    7bf8:	0508ec63          	bltu	a7,a6,7c50 <ee_printf+0x1b0>
    7bfc:	000098b7          	lui	a7,0x9
    7c00:	00281813          	slli	a6,a6,0x2
    7c04:	43488893          	addi	a7,a7,1076 # 9434 <errpat+0x6c>
    7c08:	01180833          	add	a6,a6,a7
    7c0c:	00082803          	lw	a6,0(a6)
    7c10:	00080067          	jr	a6
    7c14:	0017e793          	ori	a5,a5,1
    7c18:	00060313          	mv	t1,a2
    7c1c:	f85ff06f          	j	7ba0 <ee_printf+0x100>
    7c20:	0107e793          	ori	a5,a5,16
    7c24:	00060313          	mv	t1,a2
    7c28:	f79ff06f          	j	7ba0 <ee_printf+0x100>
    7c2c:	0047e793          	ori	a5,a5,4
    7c30:	00060313          	mv	t1,a2
    7c34:	f6dff06f          	j	7ba0 <ee_printf+0x100>
    7c38:	0207e793          	ori	a5,a5,32
    7c3c:	00060313          	mv	t1,a2
    7c40:	f61ff06f          	j	7ba0 <ee_printf+0x100>
    7c44:	0087e793          	ori	a5,a5,8
    7c48:	00060313          	mv	t1,a2
    7c4c:	f55ff06f          	j	7ba0 <ee_printf+0x100>
    7c50:	00060c13          	mv	s8,a2
    7c54:	02500793          	li	a5,37
    7c58:	00f58a63          	beq	a1,a5,7c6c <ee_printf+0x1cc>
    7c5c:	00f50023          	sb	a5,0(a0)
    7c60:	000c4583          	lbu	a1,0(s8)
    7c64:	00150513          	addi	a0,a0,1
    7c68:	ec058ae3          	beqz	a1,7b3c <ee_printf+0x9c>
    7c6c:	00b50023          	sb	a1,0(a0)
    7c70:	001c4783          	lbu	a5,1(s8)
    7c74:	001c0313          	addi	t1,s8,1
    7c78:	00150513          	addi	a0,a0,1
    7c7c:	ea0794e3          	bnez	a5,7b24 <ee_printf+0x84>
    7c80:	ebdff06f          	j	7b3c <ee_printf+0x9c>
    7c84:	00058313          	mv	t1,a1
    7c88:	00164583          	lbu	a1,1(a2)
    7c8c:	03700893          	li	a7,55
    7c90:	00160c13          	addi	s8,a2,1
    7c94:	fbf58813          	addi	a6,a1,-65
    7c98:	0ff87813          	zext.b	a6,a6
    7c9c:	fb08ece3          	bltu	a7,a6,7c54 <ee_printf+0x1b4>
    7ca0:	000098b7          	lui	a7,0x9
    7ca4:	00281813          	slli	a6,a6,0x2
    7ca8:	51488893          	addi	a7,a7,1300 # 9514 <errpat+0x14c>
    7cac:	01180833          	add	a6,a6,a7
    7cb0:	00082803          	lw	a6,0(a6)
    7cb4:	00080067          	jr	a6
    7cb8:	00164583          	lbu	a1,1(a2)
    7cbc:	00900813          	li	a6,9
    7cc0:	00160893          	addi	a7,a2,1
    7cc4:	fd058713          	addi	a4,a1,-48
    7cc8:	0ff77713          	zext.b	a4,a4
    7ccc:	38e87663          	bgeu	a6,a4,8058 <ee_printf+0x5b8>
    7cd0:	02a00713          	li	a4,42
    7cd4:	3ce58463          	beq	a1,a4,809c <ee_printf+0x5fc>
    7cd8:	00088613          	mv	a2,a7
    7cdc:	00000713          	li	a4,0
    7ce0:	f05ff06f          	j	7be4 <ee_printf+0x144>
    7ce4:	00000693          	li	a3,0
    7ce8:	00900813          	li	a6,9
    7cec:	00068893          	mv	a7,a3
    7cf0:	00289693          	slli	a3,a7,0x2
    7cf4:	011686b3          	add	a3,a3,a7
    7cf8:	00160613          	addi	a2,a2,1
    7cfc:	00169693          	slli	a3,a3,0x1
    7d00:	00b686b3          	add	a3,a3,a1
    7d04:	00064583          	lbu	a1,0(a2)
    7d08:	fd068893          	addi	a7,a3,-48
    7d0c:	fd058713          	addi	a4,a1,-48
    7d10:	0ff77713          	zext.b	a4,a4
    7d14:	fce87ee3          	bgeu	a6,a4,7cf0 <ee_printf+0x250>
    7d18:	00088693          	mv	a3,a7
    7d1c:	ec1ff06f          	j	7bdc <ee_printf+0x13c>
    7d20:	0004a683          	lw	a3,0(s1)
    7d24:	00234583          	lbu	a1,2(t1)
    7d28:	00230613          	addi	a2,t1,2
    7d2c:	00448493          	addi	s1,s1,4
    7d30:	ea06d6e3          	bgez	a3,7bdc <ee_printf+0x13c>
    7d34:	40d006b3          	neg	a3,a3
    7d38:	0107e793          	ori	a5,a5,16
    7d3c:	ea1ff06f          	j	7bdc <ee_printf+0x13c>
    7d40:	0407e793          	ori	a5,a5,64
    7d44:	01000613          	li	a2,16
    7d48:	0004a583          	lw	a1,0(s1)
    7d4c:	00448493          	addi	s1,s1,4
    7d50:	fe0ff0ef          	jal	7530 <number>
    7d54:	001c4783          	lbu	a5,1(s8)
    7d58:	001c0313          	addi	t1,s8,1
    7d5c:	dc0794e3          	bnez	a5,7b24 <ee_printf+0x84>
    7d60:	dddff06f          	j	7b3c <ee_printf+0x9c>
    7d64:	00060c13          	mv	s8,a2
    7d68:	00a00613          	li	a2,10
    7d6c:	fddff06f          	j	7d48 <ee_printf+0x2a8>
    7d70:	00060c13          	mv	s8,a2
    7d74:	0004a583          	lw	a1,0(s1)
    7d78:	00448493          	addi	s1,s1,4
    7d7c:	34058663          	beqz	a1,80c8 <ee_printf+0x628>
    7d80:	0005c603          	lbu	a2,0(a1)
    7d84:	7a0604e3          	beqz	a2,8d2c <ee_printf+0x128c>
    7d88:	7a0702e3          	beqz	a4,8d2c <ee_printf+0x128c>
    7d8c:	00058613          	mv	a2,a1
    7d90:	00c0006f          	j	7d9c <ee_printf+0x2fc>
    7d94:	40e60833          	sub	a6,a2,a4
    7d98:	00b80863          	beq	a6,a1,7da8 <ee_printf+0x308>
    7d9c:	00164803          	lbu	a6,1(a2)
    7da0:	00160613          	addi	a2,a2,1
    7da4:	fe0818e3          	bnez	a6,7d94 <ee_printf+0x2f4>
    7da8:	0107f793          	andi	a5,a5,16
    7dac:	40b60633          	sub	a2,a2,a1
    7db0:	40078663          	beqz	a5,81bc <ee_printf+0x71c>
    7db4:	08c05063          	blez	a2,7e34 <ee_printf+0x394>
    7db8:	fff60793          	addi	a5,a2,-1
    7dbc:	00600713          	li	a4,6
    7dc0:	50f770e3          	bgeu	a4,a5,8ac0 <ee_printf+0x1020>
    7dc4:	00a5e7b3          	or	a5,a1,a0
    7dc8:	0037f793          	andi	a5,a5,3
    7dcc:	4e079ae3          	bnez	a5,8ac0 <ee_printf+0x1020>
    7dd0:	00158793          	addi	a5,a1,1
    7dd4:	40f50733          	sub	a4,a0,a5
    7dd8:	00373713          	sltiu	a4,a4,3
    7ddc:	4e0714e3          	bnez	a4,8ac4 <ee_printf+0x1024>
    7de0:	ffc67893          	andi	a7,a2,-4
    7de4:	00050793          	mv	a5,a0
    7de8:	01158833          	add	a6,a1,a7
    7dec:	0005a703          	lw	a4,0(a1)
    7df0:	00458593          	addi	a1,a1,4
    7df4:	00478793          	addi	a5,a5,4
    7df8:	fee7ae23          	sw	a4,-4(a5)
    7dfc:	feb818e3          	bne	a6,a1,7dec <ee_printf+0x34c>
    7e00:	011507b3          	add	a5,a0,a7
    7e04:	02c88663          	beq	a7,a2,7e30 <ee_printf+0x390>
    7e08:	00084583          	lbu	a1,0(a6)
    7e0c:	00188713          	addi	a4,a7,1
    7e10:	00b78023          	sb	a1,0(a5)
    7e14:	00c75e63          	bge	a4,a2,7e30 <ee_printf+0x390>
    7e18:	00184703          	lbu	a4,1(a6)
    7e1c:	00288893          	addi	a7,a7,2
    7e20:	00e780a3          	sb	a4,1(a5)
    7e24:	00c8d663          	bge	a7,a2,7e30 <ee_printf+0x390>
    7e28:	00284703          	lbu	a4,2(a6)
    7e2c:	00e78123          	sb	a4,2(a5)
    7e30:	00c50533          	add	a0,a0,a2
    7e34:	fff68e93          	addi	t4,a3,-1
    7e38:	001c0313          	addi	t1,s8,1
    7e3c:	7ad654e3          	bge	a2,a3,8de4 <ee_printf+0x1344>
    7e40:	40c688b3          	sub	a7,a3,a2
    7e44:	40a00733          	neg	a4,a0
    7e48:	fff88813          	addi	a6,a7,-1
    7e4c:	00500593          	li	a1,5
    7e50:	00377793          	andi	a5,a4,3
    7e54:	7b05f0e3          	bgeu	a1,a6,8df4 <ee_printf+0x1354>
    7e58:	00050593          	mv	a1,a0
    7e5c:	02078e63          	beqz	a5,7e98 <ee_printf+0x3f8>
    7e60:	02000813          	li	a6,32
    7e64:	01050023          	sb	a6,0(a0)
    7e68:	00277713          	andi	a4,a4,2
    7e6c:	00150593          	addi	a1,a0,1
    7e70:	ffe68e93          	addi	t4,a3,-2
    7e74:	02070263          	beqz	a4,7e98 <ee_printf+0x3f8>
    7e78:	010500a3          	sb	a6,1(a0)
    7e7c:	00300713          	li	a4,3
    7e80:	00250593          	addi	a1,a0,2
    7e84:	ffd68e93          	addi	t4,a3,-3
    7e88:	00e79863          	bne	a5,a4,7e98 <ee_printf+0x3f8>
    7e8c:	00350593          	addi	a1,a0,3
    7e90:	01050123          	sb	a6,2(a0)
    7e94:	ffc68e93          	addi	t4,a3,-4
    7e98:	40f88e33          	sub	t3,a7,a5
    7e9c:	ffce7813          	andi	a6,t3,-4
    7ea0:	00f507b3          	add	a5,a0,a5
    7ea4:	20202737          	lui	a4,0x20202
    7ea8:	00f806b3          	add	a3,a6,a5
    7eac:	02070713          	addi	a4,a4,32 # 20202020 <start_time_val+0x201f8a04>
    7eb0:	00e7a023          	sw	a4,0(a5)
    7eb4:	00478793          	addi	a5,a5,4
    7eb8:	fef69ce3          	bne	a3,a5,7eb0 <ee_printf+0x410>
    7ebc:	050e0663          	beq	t3,a6,7f08 <ee_printf+0x468>
    7ec0:	01058733          	add	a4,a1,a6
    7ec4:	410e8eb3          	sub	t4,t4,a6
    7ec8:	02000693          	li	a3,32
    7ecc:	00d70023          	sb	a3,0(a4)
    7ed0:	fffe8793          	addi	a5,t4,-1
    7ed4:	03d65a63          	bge	a2,t4,7f08 <ee_printf+0x468>
    7ed8:	00d700a3          	sb	a3,1(a4)
    7edc:	ffee8593          	addi	a1,t4,-2
    7ee0:	02f65463          	bge	a2,a5,7f08 <ee_printf+0x468>
    7ee4:	00d70123          	sb	a3,2(a4)
    7ee8:	ffde8813          	addi	a6,t4,-3
    7eec:	00b65e63          	bge	a2,a1,7f08 <ee_printf+0x468>
    7ef0:	00d701a3          	sb	a3,3(a4)
    7ef4:	ffce8793          	addi	a5,t4,-4
    7ef8:	01065863          	bge	a2,a6,7f08 <ee_printf+0x468>
    7efc:	00d70223          	sb	a3,4(a4)
    7f00:	00f65463          	bge	a2,a5,7f08 <ee_printf+0x468>
    7f04:	00d702a3          	sb	a3,5(a4)
    7f08:	001c4783          	lbu	a5,1(s8)
    7f0c:	01150533          	add	a0,a0,a7
    7f10:	c0079ae3          	bnez	a5,7b24 <ee_printf+0x84>
    7f14:	c29ff06f          	j	7b3c <ee_printf+0x9c>
    7f18:	00060c13          	mv	s8,a2
    7f1c:	fff00613          	li	a2,-1
    7f20:	18c68e63          	beq	a3,a2,80bc <ee_printf+0x61c>
    7f24:	0004a583          	lw	a1,0(s1)
    7f28:	01000613          	li	a2,16
    7f2c:	00448493          	addi	s1,s1,4
    7f30:	e00ff0ef          	jal	7530 <number>
    7f34:	001c4783          	lbu	a5,1(s8)
    7f38:	001c0313          	addi	t1,s8,1
    7f3c:	be0794e3          	bnez	a5,7b24 <ee_printf+0x84>
    7f40:	bfdff06f          	j	7b3c <ee_printf+0x9c>
    7f44:	00060c13          	mv	s8,a2
    7f48:	00800613          	li	a2,8
    7f4c:	dfdff06f          	j	7d48 <ee_printf+0x2a8>
    7f50:	00060c13          	mv	s8,a2
    7f54:	0107f793          	andi	a5,a5,16
    7f58:	00448893          	addi	a7,s1,4
    7f5c:	001c0313          	addi	t1,s8,1
    7f60:	16078a63          	beqz	a5,80d4 <ee_printf+0x634>
    7f64:	0004a783          	lw	a5,0(s1)
    7f68:	fff68e93          	addi	t4,a3,-1
    7f6c:	00150e13          	addi	t3,a0,1
    7f70:	00f50023          	sb	a5,0(a0)
    7f74:	71d058e3          	blez	t4,8e84 <ee_printf+0x13e4>
    7f78:	41c00733          	neg	a4,t3
    7f7c:	ffe68613          	addi	a2,a3,-2
    7f80:	00500813          	li	a6,5
    7f84:	000e8593          	mv	a1,t4
    7f88:	00377793          	andi	a5,a4,3
    7f8c:	06c85a63          	bge	a6,a2,8000 <ee_printf+0x560>
    7f90:	02078e63          	beqz	a5,7fcc <ee_printf+0x52c>
    7f94:	02000813          	li	a6,32
    7f98:	010500a3          	sb	a6,1(a0)
    7f9c:	00277713          	andi	a4,a4,2
    7fa0:	00250e13          	addi	t3,a0,2
    7fa4:	00060e93          	mv	t4,a2
    7fa8:	02070263          	beqz	a4,7fcc <ee_printf+0x52c>
    7fac:	01050123          	sb	a6,2(a0)
    7fb0:	00300713          	li	a4,3
    7fb4:	00350e13          	addi	t3,a0,3
    7fb8:	ffd68e93          	addi	t4,a3,-3
    7fbc:	00e79863          	bne	a5,a4,7fcc <ee_printf+0x52c>
    7fc0:	00450e13          	addi	t3,a0,4
    7fc4:	010501a3          	sb	a6,3(a0)
    7fc8:	ffc68e93          	addi	t4,a3,-4
    7fcc:	40f585b3          	sub	a1,a1,a5
    7fd0:	00178793          	addi	a5,a5,1
    7fd4:	00f507b3          	add	a5,a0,a5
    7fd8:	ffc5f813          	andi	a6,a1,-4
    7fdc:	20202737          	lui	a4,0x20202
    7fe0:	00f80633          	add	a2,a6,a5
    7fe4:	02070713          	addi	a4,a4,32 # 20202020 <start_time_val+0x201f8a04>
    7fe8:	00e7a023          	sw	a4,0(a5)
    7fec:	00478793          	addi	a5,a5,4
    7ff0:	fef61ce3          	bne	a2,a5,7fe8 <ee_printf+0x548>
    7ff4:	05058863          	beq	a1,a6,8044 <ee_printf+0x5a4>
    7ff8:	010e0e33          	add	t3,t3,a6
    7ffc:	410e8eb3          	sub	t4,t4,a6
    8000:	02000793          	li	a5,32
    8004:	00fe0023          	sb	a5,0(t3)
    8008:	00100713          	li	a4,1
    800c:	03d75c63          	bge	a4,t4,8044 <ee_printf+0x5a4>
    8010:	00fe00a3          	sb	a5,1(t3)
    8014:	00200713          	li	a4,2
    8018:	02ee8663          	beq	t4,a4,8044 <ee_printf+0x5a4>
    801c:	00fe0123          	sb	a5,2(t3)
    8020:	00300713          	li	a4,3
    8024:	02ee8063          	beq	t4,a4,8044 <ee_printf+0x5a4>
    8028:	00fe01a3          	sb	a5,3(t3)
    802c:	00400713          	li	a4,4
    8030:	00ee8a63          	beq	t4,a4,8044 <ee_printf+0x5a4>
    8034:	00fe0223          	sb	a5,4(t3)
    8038:	00500713          	li	a4,5
    803c:	00ee8463          	beq	t4,a4,8044 <ee_printf+0x5a4>
    8040:	00fe02a3          	sb	a5,5(t3)
    8044:	001c4783          	lbu	a5,1(s8)
    8048:	00d50533          	add	a0,a0,a3
    804c:	00088493          	mv	s1,a7
    8050:	ac079ae3          	bnez	a5,7b24 <ee_printf+0x84>
    8054:	ae9ff06f          	j	7b3c <ee_printf+0x9c>
    8058:	00000713          	li	a4,0
    805c:	00070313          	mv	t1,a4
    8060:	00231713          	slli	a4,t1,0x2
    8064:	00670733          	add	a4,a4,t1
    8068:	00188893          	addi	a7,a7,1
    806c:	00171713          	slli	a4,a4,0x1
    8070:	00b70733          	add	a4,a4,a1
    8074:	0008c583          	lbu	a1,0(a7)
    8078:	fd070313          	addi	t1,a4,-48
    807c:	fd058613          	addi	a2,a1,-48
    8080:	0ff67613          	zext.b	a2,a2
    8084:	fcc87ee3          	bgeu	a6,a2,8060 <ee_printf+0x5c0>
    8088:	fff34613          	not	a2,t1
    808c:	41f65613          	srai	a2,a2,0x1f
    8090:	00c37733          	and	a4,t1,a2
    8094:	00088613          	mv	a2,a7
    8098:	b4dff06f          	j	7be4 <ee_printf+0x144>
    809c:	0004a703          	lw	a4,0(s1)
    80a0:	00264583          	lbu	a1,2(a2)
    80a4:	00448493          	addi	s1,s1,4
    80a8:	fff74813          	not	a6,a4
    80ac:	41f85813          	srai	a6,a6,0x1f
    80b0:	01077733          	and	a4,a4,a6
    80b4:	00260613          	addi	a2,a2,2
    80b8:	b2dff06f          	j	7be4 <ee_printf+0x144>
    80bc:	0017e793          	ori	a5,a5,1
    80c0:	00800693          	li	a3,8
    80c4:	e61ff06f          	j	7f24 <ee_printf+0x484>
    80c8:	000095b7          	lui	a1,0x9
    80cc:	39058593          	addi	a1,a1,912 # 9390 <ee_printf+0x18f0>
    80d0:	cb9ff06f          	j	7d88 <ee_printf+0x2e8>
    80d4:	00100793          	li	a5,1
    80d8:	46d7d6e3          	bge	a5,a3,8d44 <ee_printf+0x12a4>
    80dc:	fff68613          	addi	a2,a3,-1
    80e0:	40a00733          	neg	a4,a0
    80e4:	ffe68813          	addi	a6,a3,-2
    80e8:	00500593          	li	a1,5
    80ec:	00060e13          	mv	t3,a2
    80f0:	00377793          	andi	a5,a4,3
    80f4:	5905d0e3          	bge	a1,a6,8e74 <ee_printf+0x13d4>
    80f8:	00050593          	mv	a1,a0
    80fc:	02078663          	beqz	a5,8128 <ee_printf+0x688>
    8100:	02000613          	li	a2,32
    8104:	00c50023          	sb	a2,0(a0)
    8108:	00277713          	andi	a4,a4,2
    810c:	520702e3          	beqz	a4,8e30 <ee_printf+0x1390>
    8110:	00c500a3          	sb	a2,1(a0)
    8114:	00300713          	li	a4,3
    8118:	54e798e3          	bne	a5,a4,8e68 <ee_printf+0x13c8>
    811c:	00c50123          	sb	a2,2(a0)
    8120:	00350593          	addi	a1,a0,3
    8124:	ffc68613          	addi	a2,a3,-4
    8128:	40fe0f33          	sub	t5,t3,a5
    812c:	ffcf7e93          	andi	t4,t5,-4
    8130:	00f507b3          	add	a5,a0,a5
    8134:	20202737          	lui	a4,0x20202
    8138:	00fe8833          	add	a6,t4,a5
    813c:	02070713          	addi	a4,a4,32 # 20202020 <start_time_val+0x201f8a04>
    8140:	00e7a023          	sw	a4,0(a5)
    8144:	00478793          	addi	a5,a5,4
    8148:	fef81ce3          	bne	a6,a5,8140 <ee_printf+0x6a0>
    814c:	01d587b3          	add	a5,a1,t4
    8150:	41d60633          	sub	a2,a2,t4
    8154:	05df0463          	beq	t5,t4,819c <ee_printf+0x6fc>
    8158:	02000713          	li	a4,32
    815c:	00e78023          	sb	a4,0(a5)
    8160:	00100593          	li	a1,1
    8164:	02c5dc63          	bge	a1,a2,819c <ee_printf+0x6fc>
    8168:	00e780a3          	sb	a4,1(a5)
    816c:	00200593          	li	a1,2
    8170:	02b60663          	beq	a2,a1,819c <ee_printf+0x6fc>
    8174:	00e78123          	sb	a4,2(a5)
    8178:	00300593          	li	a1,3
    817c:	02b60063          	beq	a2,a1,819c <ee_printf+0x6fc>
    8180:	00e781a3          	sb	a4,3(a5)
    8184:	00400593          	li	a1,4
    8188:	00b60a63          	beq	a2,a1,819c <ee_printf+0x6fc>
    818c:	00e78223          	sb	a4,4(a5)
    8190:	00500593          	li	a1,5
    8194:	00b60463          	beq	a2,a1,819c <ee_printf+0x6fc>
    8198:	00e782a3          	sb	a4,5(a5)
    819c:	0004a783          	lw	a5,0(s1)
    81a0:	01c50e33          	add	t3,a0,t3
    81a4:	00d50533          	add	a0,a0,a3
    81a8:	00fe0023          	sb	a5,0(t3)
    81ac:	001c4783          	lbu	a5,1(s8)
    81b0:	00088493          	mv	s1,a7
    81b4:	960798e3          	bnez	a5,7b24 <ee_printf+0x84>
    81b8:	985ff06f          	j	7b3c <ee_printf+0x9c>
    81bc:	fff68813          	addi	a6,a3,-1
    81c0:	36d65ee3          	bge	a2,a3,8d3c <ee_printf+0x129c>
    81c4:	40c68e33          	sub	t3,a3,a2
    81c8:	40a00733          	neg	a4,a0
    81cc:	fffe0313          	addi	t1,t3,-1
    81d0:	00500893          	li	a7,5
    81d4:	00377793          	andi	a5,a4,3
    81d8:	4a68f2e3          	bgeu	a7,t1,8e7c <ee_printf+0x13dc>
    81dc:	00050893          	mv	a7,a0
    81e0:	02078663          	beqz	a5,820c <ee_printf+0x76c>
    81e4:	02000813          	li	a6,32
    81e8:	01050023          	sb	a6,0(a0)
    81ec:	00277713          	andi	a4,a4,2
    81f0:	42070ae3          	beqz	a4,8e24 <ee_printf+0x1384>
    81f4:	010500a3          	sb	a6,1(a0)
    81f8:	00300713          	li	a4,3
    81fc:	46e790e3          	bne	a5,a4,8e5c <ee_printf+0x13bc>
    8200:	01050123          	sb	a6,2(a0)
    8204:	00350893          	addi	a7,a0,3
    8208:	ffc68813          	addi	a6,a3,-4
    820c:	40fe0eb3          	sub	t4,t3,a5
    8210:	ffcef313          	andi	t1,t4,-4
    8214:	00f507b3          	add	a5,a0,a5
    8218:	20202737          	lui	a4,0x20202
    821c:	006786b3          	add	a3,a5,t1
    8220:	02070713          	addi	a4,a4,32 # 20202020 <start_time_val+0x201f8a04>
    8224:	00e7a023          	sw	a4,0(a5)
    8228:	00478793          	addi	a5,a5,4
    822c:	fed79ce3          	bne	a5,a3,8224 <ee_printf+0x784>
    8230:	006887b3          	add	a5,a7,t1
    8234:	40680833          	sub	a6,a6,t1
    8238:	046e8263          	beq	t4,t1,827c <ee_printf+0x7dc>
    823c:	02000713          	li	a4,32
    8240:	00e78023          	sb	a4,0(a5)
    8244:	fff80693          	addi	a3,a6,-1
    8248:	03065a63          	bge	a2,a6,827c <ee_printf+0x7dc>
    824c:	00e780a3          	sb	a4,1(a5)
    8250:	ffe80893          	addi	a7,a6,-2
    8254:	02d65463          	bge	a2,a3,827c <ee_printf+0x7dc>
    8258:	00e78123          	sb	a4,2(a5)
    825c:	ffd80693          	addi	a3,a6,-3
    8260:	01165e63          	bge	a2,a7,827c <ee_printf+0x7dc>
    8264:	00e781a3          	sb	a4,3(a5)
    8268:	ffc80813          	addi	a6,a6,-4
    826c:	00d65863          	bge	a2,a3,827c <ee_printf+0x7dc>
    8270:	00e78223          	sb	a4,4(a5)
    8274:	01065463          	bge	a2,a6,827c <ee_printf+0x7dc>
    8278:	00e782a3          	sb	a4,5(a5)
    827c:	fff60693          	addi	a3,a2,-1
    8280:	01c50533          	add	a0,a0,t3
    8284:	b31ff06f          	j	7db4 <ee_printf+0x314>
    8288:	06c00613          	li	a2,108
    828c:	0027e793          	ori	a5,a5,2
    8290:	00448813          	addi	a6,s1,4
    8294:	acc30ae3          	beq	t1,a2,7d68 <ee_printf+0x2c8>
    8298:	0004a583          	lw	a1,0(s1)
    829c:	00a00613          	li	a2,10
    82a0:	00080493          	mv	s1,a6
    82a4:	aadff06f          	j	7d50 <ee_printf+0x2b0>
    82a8:	06c00713          	li	a4,108
    82ac:	0ee308e3          	beq	t1,a4,8b9c <ee_printf+0x10fc>
    82b0:	0004a803          	lw	a6,0(s1)
    82b4:	00448493          	addi	s1,s1,4
    82b8:	00084883          	lbu	a7,0(a6)
    82bc:	7e088863          	beqz	a7,8aac <ee_printf+0x100c>
    82c0:	06300713          	li	a4,99
    82c4:	1b1756e3          	bge	a4,a7,8c70 <ee_printf+0x11d0>
    82c8:	06400593          	li	a1,100
    82cc:	02b8efb3          	rem	t6,a7,a1
    82d0:	00a00f13          	li	t5,10
    82d4:	00009e37          	lui	t3,0x9
    82d8:	340e0613          	addi	a2,t3,832 # 9340 <ee_printf+0x18a0>
    82dc:	00400313          	li	t1,4
    82e0:	00300713          	li	a4,3
    82e4:	00200e13          	li	t3,2
    82e8:	03efceb3          	div	t4,t6,t5
    82ec:	02b8c5b3          	div	a1,a7,a1
    82f0:	01d608b3          	add	a7,a2,t4
    82f4:	0008ce83          	lbu	t4,0(a7)
    82f8:	008e9e93          	slli	t4,t4,0x8
    82fc:	03efe8b3          	rem	a7,t6,t5
    8300:	00b605b3          	add	a1,a2,a1
    8304:	0005c583          	lbu	a1,0(a1)
    8308:	01d5e5b3          	or	a1,a1,t4
    830c:	00b11c23          	sh	a1,24(sp)
    8310:	011608b3          	add	a7,a2,a7
    8314:	0008c603          	lbu	a2,0(a7)
    8318:	420e0593          	addi	a1,t3,1056
    831c:	01010893          	addi	a7,sp,16
    8320:	01158e33          	add	t3,a1,a7
    8324:	bece0423          	sb	a2,-1048(t3)
    8328:	01010893          	addi	a7,sp,16
    832c:	42070613          	addi	a2,a4,1056
    8330:	00184583          	lbu	a1,1(a6)
    8334:	01160eb3          	add	t4,a2,a7
    8338:	02e00893          	li	a7,46
    833c:	bf1e8423          	sb	a7,-1048(t4)
    8340:	74058863          	beqz	a1,8a90 <ee_printf+0xff0>
    8344:	06300613          	li	a2,99
    8348:	0eb656e3          	bge	a2,a1,8c34 <ee_printf+0x1194>
    834c:	06400893          	li	a7,100
    8350:	00009e37          	lui	t3,0x9
    8354:	340e0613          	addi	a2,t3,832 # 9340 <ee_printf+0x18a0>
    8358:	42030313          	addi	t1,t1,1056
    835c:	01010e13          	addi	t3,sp,16
    8360:	01c30e33          	add	t3,t1,t3
    8364:	00370313          	addi	t1,a4,3
    8368:	00a00f13          	li	t5,10
    836c:	0315efb3          	rem	t6,a1,a7
    8370:	0315c733          	div	a4,a1,a7
    8374:	03efc5b3          	div	a1,t6,t5
    8378:	00e60733          	add	a4,a2,a4
    837c:	00074703          	lbu	a4,0(a4)
    8380:	beee0423          	sb	a4,-1048(t3)
    8384:	00b60733          	add	a4,a2,a1
    8388:	03efe5b3          	rem	a1,t6,t5
    838c:	00074703          	lbu	a4,0(a4)
    8390:	beee8523          	sb	a4,-1046(t4)
    8394:	00b605b3          	add	a1,a2,a1
    8398:	0005c583          	lbu	a1,0(a1)
    839c:	42030713          	addi	a4,t1,1056
    83a0:	01010613          	addi	a2,sp,16
    83a4:	00c70633          	add	a2,a4,a2
    83a8:	beb60423          	sb	a1,-1048(a2)
    83ac:	00130713          	addi	a4,t1,1
    83b0:	42070613          	addi	a2,a4,1056
    83b4:	01010893          	addi	a7,sp,16
    83b8:	00284583          	lbu	a1,2(a6)
    83bc:	01160eb3          	add	t4,a2,a7
    83c0:	02e00613          	li	a2,46
    83c4:	bece8423          	sb	a2,-1048(t4)
    83c8:	00170313          	addi	t1,a4,1
    83cc:	6a058463          	beqz	a1,8a74 <ee_printf+0xfd4>
    83d0:	06300893          	li	a7,99
    83d4:	02b8d2e3          	bge	a7,a1,8bf8 <ee_printf+0x1158>
    83d8:	06400893          	li	a7,100
    83dc:	00009e37          	lui	t3,0x9
    83e0:	340e0613          	addi	a2,t3,832 # 9340 <ee_printf+0x18a0>
    83e4:	42030313          	addi	t1,t1,1056
    83e8:	01010e13          	addi	t3,sp,16
    83ec:	01c30e33          	add	t3,t1,t3
    83f0:	00370313          	addi	t1,a4,3
    83f4:	00a00f13          	li	t5,10
    83f8:	0315efb3          	rem	t6,a1,a7
    83fc:	0315c733          	div	a4,a1,a7
    8400:	03efc5b3          	div	a1,t6,t5
    8404:	00e60733          	add	a4,a2,a4
    8408:	00074703          	lbu	a4,0(a4)
    840c:	beee0423          	sb	a4,-1048(t3)
    8410:	00b60733          	add	a4,a2,a1
    8414:	03efe5b3          	rem	a1,t6,t5
    8418:	00074703          	lbu	a4,0(a4)
    841c:	beee8523          	sb	a4,-1046(t4)
    8420:	00b605b3          	add	a1,a2,a1
    8424:	0005c883          	lbu	a7,0(a1)
    8428:	42030713          	addi	a4,t1,1056
    842c:	01010613          	addi	a2,sp,16
    8430:	00c705b3          	add	a1,a4,a2
    8434:	bf158423          	sb	a7,-1048(a1)
    8438:	00130713          	addi	a4,t1,1
    843c:	42070613          	addi	a2,a4,1056
    8440:	00384583          	lbu	a1,3(a6)
    8444:	01010813          	addi	a6,sp,16
    8448:	01060333          	add	t1,a2,a6
    844c:	02e00613          	li	a2,46
    8450:	bec30423          	sb	a2,-1048(t1)
    8454:	00170893          	addi	a7,a4,1
    8458:	60058063          	beqz	a1,8a58 <ee_printf+0xfb8>
    845c:	06300813          	li	a6,99
    8460:	74b85e63          	bge	a6,a1,8bbc <ee_printf+0x111c>
    8464:	06400813          	li	a6,100
    8468:	00009e37          	lui	t3,0x9
    846c:	340e0613          	addi	a2,t3,832 # 9340 <ee_printf+0x18a0>
    8470:	42088893          	addi	a7,a7,1056
    8474:	01010e13          	addi	t3,sp,16
    8478:	01c88e33          	add	t3,a7,t3
    847c:	00370893          	addi	a7,a4,3
    8480:	00a00e93          	li	t4,10
    8484:	0305ef33          	rem	t5,a1,a6
    8488:	0305c733          	div	a4,a1,a6
    848c:	03df45b3          	div	a1,t5,t4
    8490:	00e60733          	add	a4,a2,a4
    8494:	00074703          	lbu	a4,0(a4)
    8498:	beee0423          	sb	a4,-1048(t3)
    849c:	00b60733          	add	a4,a2,a1
    84a0:	03df65b3          	rem	a1,t5,t4
    84a4:	00074703          	lbu	a4,0(a4)
    84a8:	bee30523          	sb	a4,-1046(t1)
    84ac:	00b605b3          	add	a1,a2,a1
    84b0:	0005c803          	lbu	a6,0(a1)
    84b4:	42088713          	addi	a4,a7,1056
    84b8:	01010613          	addi	a2,sp,16
    84bc:	00c705b3          	add	a1,a4,a2
    84c0:	bf058423          	sb	a6,-1048(a1)
    84c4:	00188713          	addi	a4,a7,1
    84c8:	0107f793          	andi	a5,a5,16
    84cc:	0c079a63          	bnez	a5,85a0 <ee_printf+0xb00>
    84d0:	fff68313          	addi	t1,a3,-1
    84d4:	12d758e3          	bge	a4,a3,8e04 <ee_printf+0x1364>
    84d8:	40e68e33          	sub	t3,a3,a4
    84dc:	40a005b3          	neg	a1,a0
    84e0:	fffe0813          	addi	a6,t3,-1
    84e4:	00500613          	li	a2,5
    84e8:	0035f793          	andi	a5,a1,3
    84ec:	130678e3          	bgeu	a2,a6,8e1c <ee_printf+0x137c>
    84f0:	00050613          	mv	a2,a0
    84f4:	02078a63          	beqz	a5,8528 <ee_printf+0xa88>
    84f8:	02000813          	li	a6,32
    84fc:	01050023          	sb	a6,0(a0)
    8500:	0025f593          	andi	a1,a1,2
    8504:	00150613          	addi	a2,a0,1
    8508:	ffe68313          	addi	t1,a3,-2
    850c:	00058e63          	beqz	a1,8528 <ee_printf+0xa88>
    8510:	010500a3          	sb	a6,1(a0)
    8514:	00300613          	li	a2,3
    8518:	00c794e3          	bne	a5,a2,8d20 <ee_printf+0x1280>
    851c:	00350613          	addi	a2,a0,3
    8520:	01050123          	sb	a6,2(a0)
    8524:	ffc68313          	addi	t1,a3,-4
    8528:	40fe08b3          	sub	a7,t3,a5
    852c:	ffc8f813          	andi	a6,a7,-4
    8530:	00f507b3          	add	a5,a0,a5
    8534:	202026b7          	lui	a3,0x20202
    8538:	00f805b3          	add	a1,a6,a5
    853c:	02068693          	addi	a3,a3,32 # 20202020 <start_time_val+0x201f8a04>
    8540:	00d7a023          	sw	a3,0(a5)
    8544:	00478793          	addi	a5,a5,4
    8548:	fef59ce3          	bne	a1,a5,8540 <ee_printf+0xaa0>
    854c:	010607b3          	add	a5,a2,a6
    8550:	41030333          	sub	t1,t1,a6
    8554:	05088263          	beq	a7,a6,8598 <ee_printf+0xaf8>
    8558:	02000693          	li	a3,32
    855c:	00d78023          	sb	a3,0(a5)
    8560:	fff30613          	addi	a2,t1,-1
    8564:	02675a63          	bge	a4,t1,8598 <ee_printf+0xaf8>
    8568:	00d780a3          	sb	a3,1(a5)
    856c:	ffe30593          	addi	a1,t1,-2
    8570:	02c75463          	bge	a4,a2,8598 <ee_printf+0xaf8>
    8574:	00d78123          	sb	a3,2(a5)
    8578:	ffd30613          	addi	a2,t1,-3
    857c:	00b75e63          	bge	a4,a1,8598 <ee_printf+0xaf8>
    8580:	00d781a3          	sb	a3,3(a5)
    8584:	ffc30313          	addi	t1,t1,-4
    8588:	00c75863          	bge	a4,a2,8598 <ee_printf+0xaf8>
    858c:	00d78223          	sb	a3,4(a5)
    8590:	00675463          	bge	a4,t1,8598 <ee_printf+0xaf8>
    8594:	00d782a3          	sb	a3,5(a5)
    8598:	01c50533          	add	a0,a0,t3
    859c:	fff70693          	addi	a3,a4,-1
    85a0:	00357793          	andi	a5,a0,3
    85a4:	56078463          	beqz	a5,8b0c <ee_printf+0x106c>
    85a8:	01e14783          	lbu	a5,30(sp)
    85ac:	01814e03          	lbu	t3,24(sp)
    85b0:	01914303          	lbu	t1,25(sp)
    85b4:	01a14883          	lbu	a7,26(sp)
    85b8:	01b14803          	lbu	a6,27(sp)
    85bc:	01c14583          	lbu	a1,28(sp)
    85c0:	01d14603          	lbu	a2,29(sp)
    85c4:	00f50323          	sb	a5,6(a0)
    85c8:	01c50023          	sb	t3,0(a0)
    85cc:	006500a3          	sb	t1,1(a0)
    85d0:	01150123          	sb	a7,2(a0)
    85d4:	010501a3          	sb	a6,3(a0)
    85d8:	00b50223          	sb	a1,4(a0)
    85dc:	00c502a3          	sb	a2,5(a0)
    85e0:	00700793          	li	a5,7
    85e4:	06f70e63          	beq	a4,a5,8660 <ee_printf+0xbc0>
    85e8:	01f14603          	lbu	a2,31(sp)
    85ec:	00800793          	li	a5,8
    85f0:	00c503a3          	sb	a2,7(a0)
    85f4:	06f70663          	beq	a4,a5,8660 <ee_printf+0xbc0>
    85f8:	02014603          	lbu	a2,32(sp)
    85fc:	00900793          	li	a5,9
    8600:	00c50423          	sb	a2,8(a0)
    8604:	04f70e63          	beq	a4,a5,8660 <ee_printf+0xbc0>
    8608:	02114603          	lbu	a2,33(sp)
    860c:	00a00793          	li	a5,10
    8610:	00c504a3          	sb	a2,9(a0)
    8614:	04f70663          	beq	a4,a5,8660 <ee_printf+0xbc0>
    8618:	02214603          	lbu	a2,34(sp)
    861c:	00b00793          	li	a5,11
    8620:	00c50523          	sb	a2,10(a0)
    8624:	02f70e63          	beq	a4,a5,8660 <ee_printf+0xbc0>
    8628:	02314603          	lbu	a2,35(sp)
    862c:	00c00793          	li	a5,12
    8630:	00c505a3          	sb	a2,11(a0)
    8634:	02f70663          	beq	a4,a5,8660 <ee_printf+0xbc0>
    8638:	02414603          	lbu	a2,36(sp)
    863c:	00d00793          	li	a5,13
    8640:	00c50623          	sb	a2,12(a0)
    8644:	00f70e63          	beq	a4,a5,8660 <ee_printf+0xbc0>
    8648:	02514603          	lbu	a2,37(sp)
    864c:	00f00793          	li	a5,15
    8650:	00c506a3          	sb	a2,13(a0)
    8654:	00f71663          	bne	a4,a5,8660 <ee_printf+0xbc0>
    8658:	02614783          	lbu	a5,38(sp)
    865c:	00f50723          	sb	a5,14(a0)
    8660:	00e50633          	add	a2,a0,a4
    8664:	fff68813          	addi	a6,a3,-1
    8668:	70d75463          	bge	a4,a3,8d70 <ee_printf+0x12d0>
    866c:	40e685b3          	sub	a1,a3,a4
    8670:	40c008b3          	neg	a7,a2
    8674:	fff58e13          	addi	t3,a1,-1
    8678:	00500313          	li	t1,5
    867c:	0038f793          	andi	a5,a7,3
    8680:	07c37263          	bgeu	t1,t3,86e4 <ee_printf+0xc44>
    8684:	02078663          	beqz	a5,86b0 <ee_printf+0xc10>
    8688:	02000813          	li	a6,32
    868c:	01060023          	sb	a6,0(a2)
    8690:	0028f893          	andi	a7,a7,2
    8694:	60088a63          	beqz	a7,8ca8 <ee_printf+0x1208>
    8698:	010600a3          	sb	a6,1(a2)
    869c:	00300893          	li	a7,3
    86a0:	6d179263          	bne	a5,a7,8d64 <ee_printf+0x12c4>
    86a4:	01060123          	sb	a6,2(a2)
    86a8:	ffc68813          	addi	a6,a3,-4
    86ac:	00360613          	addi	a2,a2,3
    86b0:	40f58333          	sub	t1,a1,a5
    86b4:	00e787b3          	add	a5,a5,a4
    86b8:	00f507b3          	add	a5,a0,a5
    86bc:	ffc37e13          	andi	t3,t1,-4
    86c0:	202025b7          	lui	a1,0x20202
    86c4:	00fe08b3          	add	a7,t3,a5
    86c8:	02058593          	addi	a1,a1,32 # 20202020 <start_time_val+0x201f8a04>
    86cc:	00b7a023          	sw	a1,0(a5)
    86d0:	00478793          	addi	a5,a5,4
    86d4:	fef89ce3          	bne	a7,a5,86cc <ee_printf+0xc2c>
    86d8:	01c60633          	add	a2,a2,t3
    86dc:	41c80833          	sub	a6,a6,t3
    86e0:	05c30263          	beq	t1,t3,8724 <ee_printf+0xc84>
    86e4:	02000793          	li	a5,32
    86e8:	00f60023          	sb	a5,0(a2)
    86ec:	fff80593          	addi	a1,a6,-1
    86f0:	03075a63          	bge	a4,a6,8724 <ee_printf+0xc84>
    86f4:	00f600a3          	sb	a5,1(a2)
    86f8:	ffe80893          	addi	a7,a6,-2
    86fc:	02b75463          	bge	a4,a1,8724 <ee_printf+0xc84>
    8700:	00f60123          	sb	a5,2(a2)
    8704:	ffd80593          	addi	a1,a6,-3
    8708:	01175e63          	bge	a4,a7,8724 <ee_printf+0xc84>
    870c:	00f601a3          	sb	a5,3(a2)
    8710:	ffc80813          	addi	a6,a6,-4
    8714:	00b75863          	bge	a4,a1,8724 <ee_printf+0xc84>
    8718:	00f60223          	sb	a5,4(a2)
    871c:	01075463          	bge	a4,a6,8724 <ee_printf+0xc84>
    8720:	00f602a3          	sb	a5,5(a2)
    8724:	00d50533          	add	a0,a0,a3
    8728:	e2cff06f          	j	7d54 <ee_printf+0x2b4>
    872c:	06c00713          	li	a4,108
    8730:	0407e793          	ori	a5,a5,64
    8734:	b6e31ee3          	bne	t1,a4,82b0 <ee_printf+0x810>
    8738:	45912223          	sw	s9,1092(sp)
    873c:	45a12023          	sw	s10,1088(sp)
    8740:	43b12e23          	sw	s11,1084(sp)
    8744:	00009737          	lui	a4,0x9
    8748:	0004a583          	lw	a1,0(s1)
    874c:	36870713          	addi	a4,a4,872 # 9368 <ee_printf+0x18c8>
    8750:	00448493          	addi	s1,s1,4
    8754:	0005c803          	lbu	a6,0(a1)
    8758:	0035cc83          	lbu	s9,3(a1)
    875c:	0015ce03          	lbu	t3,1(a1)
    8760:	0025c883          	lbu	a7,2(a1)
    8764:	0045c383          	lbu	t2,4(a1)
    8768:	0055cc03          	lbu	s8,5(a1)
    876c:	00f87313          	andi	t1,a6,15
    8770:	00670333          	add	t1,a4,t1
    8774:	00485813          	srli	a6,a6,0x4
    8778:	01070eb3          	add	t4,a4,a6
    877c:	00034d03          	lbu	s10,0(t1)
    8780:	004cd293          	srli	t0,s9,0x4
    8784:	004e5f93          	srli	t6,t3,0x4
    8788:	0048df13          	srli	t5,a7,0x4
    878c:	00fcf813          	andi	a6,s9,15
    8790:	0043d313          	srli	t1,t2,0x4
    8794:	00f3f593          	andi	a1,t2,15
    8798:	004c5d93          	srli	s11,s8,0x4
    879c:	00fe7e13          	andi	t3,t3,15
    87a0:	00f8f893          	andi	a7,a7,15
    87a4:	000ecc83          	lbu	s9,0(t4)
    87a8:	01f70fb3          	add	t6,a4,t6
    87ac:	01c70e33          	add	t3,a4,t3
    87b0:	01e70f33          	add	t5,a4,t5
    87b4:	011708b3          	add	a7,a4,a7
    87b8:	00570eb3          	add	t4,a4,t0
    87bc:	01070833          	add	a6,a4,a6
    87c0:	00b705b3          	add	a1,a4,a1
    87c4:	00670333          	add	t1,a4,t1
    87c8:	01b70db3          	add	s11,a4,s11
    87cc:	000fc383          	lbu	t2,0(t6)
    87d0:	000e4283          	lbu	t0,0(t3)
    87d4:	000f4f83          	lbu	t6,0(t5)
    87d8:	00084e03          	lbu	t3,0(a6)
    87dc:	0008cf03          	lbu	t5,0(a7)
    87e0:	000ece83          	lbu	t4,0(t4)
    87e4:	0005c883          	lbu	a7,0(a1)
    87e8:	00034303          	lbu	t1,0(t1)
    87ec:	000dc803          	lbu	a6,0(s11)
    87f0:	00fc7c13          	andi	s8,s8,15
    87f4:	008d1d13          	slli	s10,s10,0x8
    87f8:	03a00593          	li	a1,58
    87fc:	01acecb3          	or	s9,s9,s10
    8800:	01870733          	add	a4,a4,s8
    8804:	0107f793          	andi	a5,a5,16
    8808:	01911c23          	sh	s9,24(sp)
    880c:	00b10d23          	sb	a1,26(sp)
    8810:	00710da3          	sb	t2,27(sp)
    8814:	00510e23          	sb	t0,28(sp)
    8818:	00b10ea3          	sb	a1,29(sp)
    881c:	01f10f23          	sb	t6,30(sp)
    8820:	01e10fa3          	sb	t5,31(sp)
    8824:	02b10023          	sb	a1,32(sp)
    8828:	03d100a3          	sb	t4,33(sp)
    882c:	03c10123          	sb	t3,34(sp)
    8830:	02b101a3          	sb	a1,35(sp)
    8834:	02610223          	sb	t1,36(sp)
    8838:	031102a3          	sb	a7,37(sp)
    883c:	02b10323          	sb	a1,38(sp)
    8840:	030103a3          	sb	a6,39(sp)
    8844:	00074c03          	lbu	s8,0(a4)
    8848:	0c079e63          	bnez	a5,8924 <ee_printf+0xe84>
    884c:	01100793          	li	a5,17
    8850:	fff68593          	addi	a1,a3,-1
    8854:	5ed7dc63          	bge	a5,a3,8e4c <ee_printf+0x13ac>
    8858:	40a00733          	neg	a4,a0
    885c:	fee68c93          	addi	s9,a3,-18
    8860:	00500d93          	li	s11,5
    8864:	fef68d13          	addi	s10,a3,-17
    8868:	00377793          	andi	a5,a4,3
    886c:	5f9df463          	bgeu	s11,s9,8e54 <ee_printf+0x13b4>
    8870:	00a12623          	sw	a0,12(sp)
    8874:	02078863          	beqz	a5,88a4 <ee_printf+0xe04>
    8878:	02000593          	li	a1,32
    887c:	00b50023          	sb	a1,0(a0)
    8880:	00277713          	andi	a4,a4,2
    8884:	58070463          	beqz	a4,8e0c <ee_printf+0x136c>
    8888:	00b500a3          	sb	a1,1(a0)
    888c:	00300713          	li	a4,3
    8890:	5ae79663          	bne	a5,a4,8e3c <ee_printf+0x139c>
    8894:	00350713          	addi	a4,a0,3
    8898:	00b50123          	sb	a1,2(a0)
    889c:	00e12623          	sw	a4,12(sp)
    88a0:	ffc68593          	addi	a1,a3,-4
    88a4:	40fd0db3          	sub	s11,s10,a5
    88a8:	ffcdfc93          	andi	s9,s11,-4
    88ac:	00f507b3          	add	a5,a0,a5
    88b0:	20202737          	lui	a4,0x20202
    88b4:	00fc86b3          	add	a3,s9,a5
    88b8:	02070713          	addi	a4,a4,32 # 20202020 <start_time_val+0x201f8a04>
    88bc:	00e7a023          	sw	a4,0(a5)
    88c0:	00478793          	addi	a5,a5,4
    88c4:	fef69ce3          	bne	a3,a5,88bc <ee_printf+0xe1c>
    88c8:	00c12783          	lw	a5,12(sp)
    88cc:	419585b3          	sub	a1,a1,s9
    88d0:	019787b3          	add	a5,a5,s9
    88d4:	059d8463          	beq	s11,s9,891c <ee_printf+0xe7c>
    88d8:	02000713          	li	a4,32
    88dc:	00e78023          	sb	a4,0(a5)
    88e0:	01100693          	li	a3,17
    88e4:	02b6dc63          	bge	a3,a1,891c <ee_printf+0xe7c>
    88e8:	00e780a3          	sb	a4,1(a5)
    88ec:	01200693          	li	a3,18
    88f0:	02d58663          	beq	a1,a3,891c <ee_printf+0xe7c>
    88f4:	00e78123          	sb	a4,2(a5)
    88f8:	01300693          	li	a3,19
    88fc:	02d58063          	beq	a1,a3,891c <ee_printf+0xe7c>
    8900:	00e781a3          	sb	a4,3(a5)
    8904:	01400693          	li	a3,20
    8908:	00d58a63          	beq	a1,a3,891c <ee_printf+0xe7c>
    890c:	00e78223          	sb	a4,4(a5)
    8910:	01500693          	li	a3,21
    8914:	00d58463          	beq	a1,a3,891c <ee_printf+0xe7c>
    8918:	00e782a3          	sb	a4,5(a5)
    891c:	01a50533          	add	a0,a0,s10
    8920:	01000693          	li	a3,16
    8924:	00357793          	andi	a5,a0,3
    8928:	44079863          	bnez	a5,8d78 <ee_printf+0x12d8>
    892c:	01c12783          	lw	a5,28(sp)
    8930:	00f52223          	sw	a5,4(a0)
    8934:	02012783          	lw	a5,32(sp)
    8938:	00f52423          	sw	a5,8(a0)
    893c:	01812783          	lw	a5,24(sp)
    8940:	00f52023          	sw	a5,0(a0)
    8944:	02412783          	lw	a5,36(sp)
    8948:	00f52623          	sw	a5,12(a0)
    894c:	01850823          	sb	s8,16(a0)
    8950:	01100793          	li	a5,17
    8954:	01150313          	addi	t1,a0,17
    8958:	fff68e13          	addi	t3,a3,-1
    895c:	4ad7d063          	bge	a5,a3,8dfc <ee_printf+0x135c>
    8960:	40600733          	neg	a4,t1
    8964:	fee68593          	addi	a1,a3,-18
    8968:	00500893          	li	a7,5
    896c:	fef68813          	addi	a6,a3,-17
    8970:	00377793          	andi	a5,a4,3
    8974:	06b8fa63          	bgeu	a7,a1,89e8 <ee_printf+0xf48>
    8978:	02078e63          	beqz	a5,89b4 <ee_printf+0xf14>
    897c:	02000593          	li	a1,32
    8980:	00b508a3          	sb	a1,17(a0)
    8984:	00277713          	andi	a4,a4,2
    8988:	01250313          	addi	t1,a0,18
    898c:	ffe68e13          	addi	t3,a3,-2
    8990:	02070263          	beqz	a4,89b4 <ee_printf+0xf14>
    8994:	00b50923          	sb	a1,18(a0)
    8998:	00300713          	li	a4,3
    899c:	01350313          	addi	t1,a0,19
    89a0:	ffd68e13          	addi	t3,a3,-3
    89a4:	00e79863          	bne	a5,a4,89b4 <ee_printf+0xf14>
    89a8:	01450313          	addi	t1,a0,20
    89ac:	00b509a3          	sb	a1,19(a0)
    89b0:	ffc68e13          	addi	t3,a3,-4
    89b4:	40f80833          	sub	a6,a6,a5
    89b8:	01178793          	addi	a5,a5,17
    89bc:	00f507b3          	add	a5,a0,a5
    89c0:	ffc87893          	andi	a7,a6,-4
    89c4:	20202737          	lui	a4,0x20202
    89c8:	00f885b3          	add	a1,a7,a5
    89cc:	02070713          	addi	a4,a4,32 # 20202020 <start_time_val+0x201f8a04>
    89d0:	00e7a023          	sw	a4,0(a5)
    89d4:	00478793          	addi	a5,a5,4
    89d8:	fef59ce3          	bne	a1,a5,89d0 <ee_printf+0xf30>
    89dc:	01130333          	add	t1,t1,a7
    89e0:	411e0e33          	sub	t3,t3,a7
    89e4:	05088463          	beq	a7,a6,8a2c <ee_printf+0xf8c>
    89e8:	02000793          	li	a5,32
    89ec:	00f30023          	sb	a5,0(t1)
    89f0:	01100713          	li	a4,17
    89f4:	03c75c63          	bge	a4,t3,8a2c <ee_printf+0xf8c>
    89f8:	00f300a3          	sb	a5,1(t1)
    89fc:	01200713          	li	a4,18
    8a00:	02ee0663          	beq	t3,a4,8a2c <ee_printf+0xf8c>
    8a04:	00f30123          	sb	a5,2(t1)
    8a08:	01300713          	li	a4,19
    8a0c:	02ee0063          	beq	t3,a4,8a2c <ee_printf+0xf8c>
    8a10:	00f301a3          	sb	a5,3(t1)
    8a14:	01400713          	li	a4,20
    8a18:	00ee0a63          	beq	t3,a4,8a2c <ee_printf+0xf8c>
    8a1c:	00f30223          	sb	a5,4(t1)
    8a20:	01500713          	li	a4,21
    8a24:	00ee0463          	beq	t3,a4,8a2c <ee_printf+0xf8c>
    8a28:	00f302a3          	sb	a5,5(t1)
    8a2c:	00d50533          	add	a0,a0,a3
    8a30:	00264783          	lbu	a5,2(a2)
    8a34:	44412c83          	lw	s9,1092(sp)
    8a38:	44012d03          	lw	s10,1088(sp)
    8a3c:	43c12d83          	lw	s11,1084(sp)
    8a40:	00260313          	addi	t1,a2,2
    8a44:	8e079063          	bnez	a5,7b24 <ee_printf+0x84>
    8a48:	8f4ff06f          	j	7b3c <ee_printf+0x9c>
    8a4c:	0407e793          	ori	a5,a5,64
    8a50:	00060c13          	mv	s8,a2
    8a54:	85dff06f          	j	82b0 <ee_printf+0x810>
    8a58:	01010593          	addi	a1,sp,16
    8a5c:	42088613          	addi	a2,a7,1056
    8a60:	00b60633          	add	a2,a2,a1
    8a64:	03000593          	li	a1,48
    8a68:	00270713          	addi	a4,a4,2
    8a6c:	beb60423          	sb	a1,-1048(a2)
    8a70:	a59ff06f          	j	84c8 <ee_printf+0xa28>
    8a74:	01010593          	addi	a1,sp,16
    8a78:	42030613          	addi	a2,t1,1056
    8a7c:	00b60633          	add	a2,a2,a1
    8a80:	03000593          	li	a1,48
    8a84:	00270713          	addi	a4,a4,2
    8a88:	beb60423          	sb	a1,-1048(a2)
    8a8c:	9b1ff06f          	j	843c <ee_printf+0x99c>
    8a90:	01010593          	addi	a1,sp,16
    8a94:	42030613          	addi	a2,t1,1056
    8a98:	00b60633          	add	a2,a2,a1
    8a9c:	03000593          	li	a1,48
    8aa0:	00270713          	addi	a4,a4,2
    8aa4:	beb60423          	sb	a1,-1048(a2)
    8aa8:	909ff06f          	j	83b0 <ee_printf+0x910>
    8aac:	03000713          	li	a4,48
    8ab0:	00e10c23          	sb	a4,24(sp)
    8ab4:	00200313          	li	t1,2
    8ab8:	00100713          	li	a4,1
    8abc:	86dff06f          	j	8328 <ee_printf+0x888>
    8ac0:	00158793          	addi	a5,a1,1
    8ac4:	00c585b3          	add	a1,a1,a2
    8ac8:	00050713          	mv	a4,a0
    8acc:	0080006f          	j	8ad4 <ee_printf+0x1034>
    8ad0:	00178793          	addi	a5,a5,1
    8ad4:	fff7c803          	lbu	a6,-1(a5)
    8ad8:	00170713          	addi	a4,a4,1
    8adc:	ff070fa3          	sb	a6,-1(a4)
    8ae0:	feb798e3          	bne	a5,a1,8ad0 <ee_printf+0x1030>
    8ae4:	b4cff06f          	j	7e30 <ee_printf+0x390>
    8ae8:	46c12083          	lw	ra,1132(sp)
    8aec:	46412483          	lw	s1,1124(sp)
    8af0:	45812a03          	lw	s4,1112(sp)
    8af4:	00000513          	li	a0,0
    8af8:	49010113          	addi	sp,sp,1168
    8afc:	00008067          	ret
    8b00:	03010a13          	addi	s4,sp,48
    8b04:	000a0513          	mv	a0,s4
    8b08:	850ff06f          	j	7b58 <ee_printf+0xb8>
    8b0c:	01812583          	lw	a1,24(sp)
    8b10:	00275793          	srli	a5,a4,0x2
    8b14:	00100613          	li	a2,1
    8b18:	00b52023          	sw	a1,0(a0)
    8b1c:	2ac78663          	beq	a5,a2,8dc8 <ee_printf+0x1328>
    8b20:	01c12583          	lw	a1,28(sp)
    8b24:	00300613          	li	a2,3
    8b28:	00b52223          	sw	a1,4(a0)
    8b2c:	00c79663          	bne	a5,a2,8b38 <ee_printf+0x1098>
    8b30:	02012783          	lw	a5,32(sp)
    8b34:	00f52423          	sw	a5,8(a0)
    8b38:	00377793          	andi	a5,a4,3
    8b3c:	b20782e3          	beqz	a5,8660 <ee_printf+0xbc0>
    8b40:	ffc77613          	andi	a2,a4,-4
    8b44:	42060593          	addi	a1,a2,1056
    8b48:	01010813          	addi	a6,sp,16
    8b4c:	010585b3          	add	a1,a1,a6
    8b50:	be85c803          	lbu	a6,-1048(a1)
    8b54:	00060793          	mv	a5,a2
    8b58:	00c50633          	add	a2,a0,a2
    8b5c:	01060023          	sb	a6,0(a2)
    8b60:	00178593          	addi	a1,a5,1
    8b64:	00160813          	addi	a6,a2,1
    8b68:	aee5dce3          	bge	a1,a4,8660 <ee_printf+0xbc0>
    8b6c:	42058593          	addi	a1,a1,1056
    8b70:	01010893          	addi	a7,sp,16
    8b74:	011585b3          	add	a1,a1,a7
    8b78:	be85c583          	lbu	a1,-1048(a1)
    8b7c:	00278793          	addi	a5,a5,2
    8b80:	00b80023          	sb	a1,0(a6)
    8b84:	ace7dee3          	bge	a5,a4,8660 <ee_printf+0xbc0>
    8b88:	42078793          	addi	a5,a5,1056
    8b8c:	011787b3          	add	a5,a5,a7
    8b90:	be87c783          	lbu	a5,-1048(a5)
    8b94:	00f60123          	sb	a5,2(a2)
    8b98:	ac9ff06f          	j	8660 <ee_printf+0xbc0>
    8b9c:	45912223          	sw	s9,1092(sp)
    8ba0:	45a12023          	sw	s10,1088(sp)
    8ba4:	43b12e23          	sw	s11,1084(sp)
    8ba8:	00009e37          	lui	t3,0x9
    8bac:	0004a583          	lw	a1,0(s1)
    8bb0:	340e0713          	addi	a4,t3,832 # 9340 <ee_printf+0x18a0>
    8bb4:	00448493          	addi	s1,s1,4
    8bb8:	b9dff06f          	j	8754 <ee_printf+0xcb4>
    8bbc:	00900613          	li	a2,9
    8bc0:	12b65a63          	bge	a2,a1,8cf4 <ee_printf+0x1254>
    8bc4:	00a00313          	li	t1,10
    8bc8:	0265c833          	div	a6,a1,t1
    8bcc:	00009e37          	lui	t3,0x9
    8bd0:	340e0613          	addi	a2,t3,832 # 9340 <ee_printf+0x18a0>
    8bd4:	42088893          	addi	a7,a7,1056
    8bd8:	01010e13          	addi	t3,sp,16
    8bdc:	01c88e33          	add	t3,a7,t3
    8be0:	00270893          	addi	a7,a4,2
    8be4:	01060733          	add	a4,a2,a6
    8be8:	00074703          	lbu	a4,0(a4)
    8bec:	0265e5b3          	rem	a1,a1,t1
    8bf0:	beee0423          	sb	a4,-1048(t3)
    8bf4:	8b9ff06f          	j	84ac <ee_printf+0xa0c>
    8bf8:	00900613          	li	a2,9
    8bfc:	0eb65663          	bge	a2,a1,8ce8 <ee_printf+0x1248>
    8c00:	00a00e93          	li	t4,10
    8c04:	03d5c8b3          	div	a7,a1,t4
    8c08:	00009e37          	lui	t3,0x9
    8c0c:	340e0613          	addi	a2,t3,832 # 9340 <ee_printf+0x18a0>
    8c10:	42030313          	addi	t1,t1,1056
    8c14:	01010e13          	addi	t3,sp,16
    8c18:	01c30e33          	add	t3,t1,t3
    8c1c:	00270313          	addi	t1,a4,2
    8c20:	01160733          	add	a4,a2,a7
    8c24:	00074703          	lbu	a4,0(a4)
    8c28:	03d5e5b3          	rem	a1,a1,t4
    8c2c:	beee0423          	sb	a4,-1048(t3)
    8c30:	ff0ff06f          	j	8420 <ee_printf+0x980>
    8c34:	00900613          	li	a2,9
    8c38:	0ab65263          	bge	a2,a1,8cdc <ee_printf+0x123c>
    8c3c:	00a00e93          	li	t4,10
    8c40:	03d5c8b3          	div	a7,a1,t4
    8c44:	00009e37          	lui	t3,0x9
    8c48:	340e0613          	addi	a2,t3,832 # 9340 <ee_printf+0x18a0>
    8c4c:	42030313          	addi	t1,t1,1056
    8c50:	01010e13          	addi	t3,sp,16
    8c54:	01c30e33          	add	t3,t1,t3
    8c58:	00270313          	addi	t1,a4,2
    8c5c:	01160733          	add	a4,a2,a7
    8c60:	00074703          	lbu	a4,0(a4)
    8c64:	03d5e5b3          	rem	a1,a1,t4
    8c68:	beee0423          	sb	a4,-1048(t3)
    8c6c:	f28ff06f          	j	8394 <ee_printf+0x8f4>
    8c70:	00900713          	li	a4,9
    8c74:	05175863          	bge	a4,a7,8cc4 <ee_printf+0x1224>
    8c78:	00a00e93          	li	t4,10
    8c7c:	03d8c5b3          	div	a1,a7,t4
    8c80:	00009e37          	lui	t3,0x9
    8c84:	340e0613          	addi	a2,t3,832 # 9340 <ee_printf+0x18a0>
    8c88:	00300313          	li	t1,3
    8c8c:	00200713          	li	a4,2
    8c90:	00100e13          	li	t3,1
    8c94:	00b605b3          	add	a1,a2,a1
    8c98:	0005c583          	lbu	a1,0(a1)
    8c9c:	03d8e8b3          	rem	a7,a7,t4
    8ca0:	00b10c23          	sb	a1,24(sp)
    8ca4:	e6cff06f          	j	8310 <ee_printf+0x870>
    8ca8:	00160613          	addi	a2,a2,1
    8cac:	ffe68813          	addi	a6,a3,-2
    8cb0:	a01ff06f          	j	86b0 <ee_printf+0xc10>
    8cb4:	0027e793          	ori	a5,a5,2
    8cb8:	00448813          	addi	a6,s1,4
    8cbc:	00060c13          	mv	s8,a2
    8cc0:	dd8ff06f          	j	8298 <ee_printf+0x7f8>
    8cc4:	00009637          	lui	a2,0x9
    8cc8:	00200313          	li	t1,2
    8ccc:	00100713          	li	a4,1
    8cd0:	00000e13          	li	t3,0
    8cd4:	34060613          	addi	a2,a2,832 # 9340 <ee_printf+0x18a0>
    8cd8:	e38ff06f          	j	8310 <ee_printf+0x870>
    8cdc:	00009637          	lui	a2,0x9
    8ce0:	34060613          	addi	a2,a2,832 # 9340 <ee_printf+0x18a0>
    8ce4:	eb0ff06f          	j	8394 <ee_printf+0x8f4>
    8ce8:	00009637          	lui	a2,0x9
    8cec:	34060613          	addi	a2,a2,832 # 9340 <ee_printf+0x18a0>
    8cf0:	f30ff06f          	j	8420 <ee_printf+0x980>
    8cf4:	00009637          	lui	a2,0x9
    8cf8:	34060613          	addi	a2,a2,832 # 9340 <ee_printf+0x18a0>
    8cfc:	fb0ff06f          	j	84ac <ee_printf+0xa0c>
    8d00:	00060c13          	mv	s8,a2
    8d04:	dacff06f          	j	82b0 <ee_printf+0x810>
    8d08:	00060c13          	mv	s8,a2
    8d0c:	0407e793          	ori	a5,a5,64
    8d10:	01000613          	li	a2,16
    8d14:	834ff06f          	j	7d48 <ee_printf+0x2a8>
    8d18:	00060c13          	mv	s8,a2
    8d1c:	828ff06f          	j	7d44 <ee_printf+0x2a4>
    8d20:	00250613          	addi	a2,a0,2
    8d24:	ffd68313          	addi	t1,a3,-3
    8d28:	801ff06f          	j	8528 <ee_printf+0xa88>
    8d2c:	0107f613          	andi	a2,a5,16
    8d30:	c8060663          	beqz	a2,81bc <ee_printf+0x71c>
    8d34:	00000613          	li	a2,0
    8d38:	8fcff06f          	j	7e34 <ee_printf+0x394>
    8d3c:	00080693          	mv	a3,a6
    8d40:	874ff06f          	j	7db4 <ee_printf+0x314>
    8d44:	0004a783          	lw	a5,0(s1)
    8d48:	00150513          	addi	a0,a0,1
    8d4c:	00088493          	mv	s1,a7
    8d50:	fef50fa3          	sb	a5,-1(a0)
    8d54:	001c4783          	lbu	a5,1(s8)
    8d58:	00078463          	beqz	a5,8d60 <ee_printf+0x12c0>
    8d5c:	dc9fe06f          	j	7b24 <ee_printf+0x84>
    8d60:	dddfe06f          	j	7b3c <ee_printf+0x9c>
    8d64:	00260613          	addi	a2,a2,2
    8d68:	ffd68813          	addi	a6,a3,-3
    8d6c:	945ff06f          	j	86b0 <ee_printf+0xc10>
    8d70:	00060513          	mv	a0,a2
    8d74:	fe1fe06f          	j	7d54 <ee_printf+0x2b4>
    8d78:	01814583          	lbu	a1,24(sp)
    8d7c:	01914703          	lbu	a4,25(sp)
    8d80:	03a00793          	li	a5,58
    8d84:	00b50023          	sb	a1,0(a0)
    8d88:	00e500a3          	sb	a4,1(a0)
    8d8c:	00f50123          	sb	a5,2(a0)
    8d90:	007501a3          	sb	t2,3(a0)
    8d94:	00550223          	sb	t0,4(a0)
    8d98:	00f502a3          	sb	a5,5(a0)
    8d9c:	01f50323          	sb	t6,6(a0)
    8da0:	01e503a3          	sb	t5,7(a0)
    8da4:	00f50423          	sb	a5,8(a0)
    8da8:	01d504a3          	sb	t4,9(a0)
    8dac:	01c50523          	sb	t3,10(a0)
    8db0:	00f505a3          	sb	a5,11(a0)
    8db4:	00650623          	sb	t1,12(a0)
    8db8:	011506a3          	sb	a7,13(a0)
    8dbc:	00f50723          	sb	a5,14(a0)
    8dc0:	010507a3          	sb	a6,15(a0)
    8dc4:	b89ff06f          	j	894c <ee_printf+0xeac>
    8dc8:	01c14783          	lbu	a5,28(sp)
    8dcc:	00450613          	addi	a2,a0,4
    8dd0:	00550813          	addi	a6,a0,5
    8dd4:	00f50223          	sb	a5,4(a0)
    8dd8:	00500593          	li	a1,5
    8ddc:	00400793          	li	a5,4
    8de0:	d8dff06f          	j	8b6c <ee_printf+0x10cc>
    8de4:	001c4783          	lbu	a5,1(s8)
    8de8:	00078463          	beqz	a5,8df0 <ee_printf+0x1350>
    8dec:	d39fe06f          	j	7b24 <ee_printf+0x84>
    8df0:	d4dfe06f          	j	7b3c <ee_printf+0x9c>
    8df4:	00050713          	mv	a4,a0
    8df8:	8d0ff06f          	j	7ec8 <ee_printf+0x428>
    8dfc:	00030513          	mv	a0,t1
    8e00:	c31ff06f          	j	8a30 <ee_printf+0xf90>
    8e04:	00030693          	mv	a3,t1
    8e08:	f98ff06f          	j	85a0 <ee_printf+0xb00>
    8e0c:	00150713          	addi	a4,a0,1
    8e10:	00e12623          	sw	a4,12(sp)
    8e14:	ffe68593          	addi	a1,a3,-2
    8e18:	a8dff06f          	j	88a4 <ee_printf+0xe04>
    8e1c:	00050793          	mv	a5,a0
    8e20:	f38ff06f          	j	8558 <ee_printf+0xab8>
    8e24:	00150893          	addi	a7,a0,1
    8e28:	ffe68813          	addi	a6,a3,-2
    8e2c:	be0ff06f          	j	820c <ee_printf+0x76c>
    8e30:	00150593          	addi	a1,a0,1
    8e34:	00080613          	mv	a2,a6
    8e38:	af0ff06f          	j	8128 <ee_printf+0x688>
    8e3c:	00250713          	addi	a4,a0,2
    8e40:	00e12623          	sw	a4,12(sp)
    8e44:	ffd68593          	addi	a1,a3,-3
    8e48:	a5dff06f          	j	88a4 <ee_printf+0xe04>
    8e4c:	00058693          	mv	a3,a1
    8e50:	ad5ff06f          	j	8924 <ee_printf+0xe84>
    8e54:	00050793          	mv	a5,a0
    8e58:	a81ff06f          	j	88d8 <ee_printf+0xe38>
    8e5c:	00250893          	addi	a7,a0,2
    8e60:	ffd68813          	addi	a6,a3,-3
    8e64:	ba8ff06f          	j	820c <ee_printf+0x76c>
    8e68:	00250593          	addi	a1,a0,2
    8e6c:	ffd68613          	addi	a2,a3,-3
    8e70:	ab8ff06f          	j	8128 <ee_printf+0x688>
    8e74:	00050793          	mv	a5,a0
    8e78:	ae0ff06f          	j	8158 <ee_printf+0x6b8>
    8e7c:	00050793          	mv	a5,a0
    8e80:	bbcff06f          	j	823c <ee_printf+0x79c>
    8e84:	000e0513          	mv	a0,t3
    8e88:	b24ff06f          	j	81ac <ee_printf+0x70c>
